(dp0
S'30_8_0_3_Da12a_Fa36a_8'
p1
F0.028933100000000003
sS'80_1_0__Da4a_Fa6a_8'
p2
F0.083447750000000001
sS'80_3_0__Da2a_Fa24a_2'
p3
F0.29385050000000001
sS'80_3_0__Da4a_Fa18a_12'
p4
F0.08426235
sS'30_1_0_3_Da4a__8'
p5
F0.0020693216666666666
sS'30_1_0_3_Da4a__4'
p6
F0.0027350116666666666
sS'30_8_0_3_Da12a_Fa36a_2'
p7
F0.055174466666666665
sS'30_1_0_3_Da4a__1'
p8
F0.0078373149999999992
sS'80_1_0_3__Fa18a_12'
p9
F0.025705933333333333
sS'30_1_0_3_Da4a__2'
p10
F0.0046664300000000001
sS'80_8_0__Da2a_Fa24a_12'
p11
F0.29528066666666669
sS'100_8_0__Da8a_Fa36a_8'
p12
F0.67643599999999993
sS'80_1_0_3_Da4a_Fa24a_8'
p13
F0.029171916666666669
sS'100_8_0_3_Da8a__8'
p14
F0.63252849999999994
sS'100_8_0_3_Da8a__1'
p15
F4.7656816666666666
sS'100_8_0_3_Da8a__2'
p16
F1.9752616666666665
sS'100_8_0_3_Da8a__4'
p17
F1.0369633333333332
sS'30_8_0_3_Da8a__8'
p18
F0.027488666666666672
sS'80_1_0_3_Da8a_Fa6a_1'
p19
F0.15139949999999999
sS'80_1_0_3_Da8a_Fa6a_2'
p20
F0.084746766666666654
sS'80_3_0_3___1'
p21
F0.31214883333333332
sS'80_1_0_3_Da8a_Fa6a_4'
p22
F0.0472022
sS'80_8_0_3_Da4a_Fa24a_4'
p23
F0.5268275
sS'80_3_0_3___4'
p24
F0.079718766666666677
sS'30_8_0_3_Da12a_Fa36a_1'
p25
F0.12279050000000001
sS'80_1_0_3_Da8a_Fa6a_8'
p26
F0.040980533333333326
sS'30_8_0_3_Da8a__1'
p27
F0.12270633333333335
sS'30_8_0_3_Da8a__2'
p28
F0.054057416666666663
sS'30_8_0_3_Da8a__4'
p29
F0.031426416666666665
sS'80_1_0__Da4a_Fa6a_2'
p30
F0.17592866666666665
sS'80_3_0_3_Da4a_Fa6a_12'
p31
F0.074846883333333322
sS'spe10_3_0_3_Da2a_Fa36a_8'
p32
F0.098363849999999989
sS'spe10_3_0_3_Da2a_Fa36a_1'
p33
F0.64900633333333335
sS'spe10_3_0_3_Da2a_Fa36a_2'
p34
F0.31261049999999996
sS'spe10_3_0_3_Da2a_Fa36a_4'
p35
F0.16551616666666666
sS'80_3_0_3_Da12a_Fa6a_12'
p36
F0.080022550000000012
sS'100_8_0_3__Fa24a_8'
p37
F0.59994583333333329
sS'30_3_0__Da12a_Fa36a_12'
p38
F0.0038146983333333332
sS'100_8_0_3__Fa24a_2'
p39
F1.9827166666666667
sS'30_1_0_3_Da8a_Fa6a_12'
p40
F0.0030040399999999999
sS'100_8_0__Da8a_Fa12a_4'
p41
F1.1949966666666667
sS'100_8_0_3__Fa24a_4'
p42
F1.0303449999999998
sS'80_8_0__Da4a_Fa12a_1'
p43
F2.4010400000000001
sS'80_8_0_3_Da2a_Fa18a_12'
p44
F0.24821866666666667
sS'30_1_0_3__Fa36a_4'
p45
F0.0027999083333333334
sS'30_1_0_3__Fa36a_1'
p46
F0.0078563233333333333
sS'30_1_0_3__Fa36a_2'
p47
F0.0048847966666666666
sS'100_8_0_3_Da2a_Fa6a_12'
p48
F0.91162383333333341
sS'30_1_0_3__Fa36a_8'
p49
F0.001971745
sS'100_1_0__Da12a_Fa18a_12'
p50
F0.098937700000000017
sS'spe10_3_0_3_Da2a_Fa6a_8'
p51
F0.19537450000000001
sS'30_3_0____12'
p52
F0.0068020566666666671
sS'spe10_3_0_3_Da4a__8'
p53
F0.09948336666666667
sS'spe10_3_0_3_Da4a__4'
p54
F0.16488233333333335
sS'spe10_3_0_3_Da2a_Fa6a_1'
p55
F0.64935733333333345
sS'spe10_3_0_3_Da4a__1'
p56
F0.65190116666666664
sS'spe10_3_0_3_Da2a_Fa6a_4'
p57
F0.19087966666666667
sS'30_1_0__Da2a__4'
p58
F0.0063521049999999994
sS'30_1_0__Da2a__1'
p59
F0.0078829616666666654
sS'30_1_0__Da2a__2'
p60
F0.010800550000000001
sS'30_1_0__Da2a__8'
p61
F0.004152103333333333
sS'100_1_0_3_Da8a_Fa12a_12'
p62
F0.055539416666666667
sS'30_3_0___Fa12a_12'
p63
F0.0044331483333333336
sS'100_8_0__Da8a_Fa12a_1'
p64
F4.7711616666666661
sS'100_8_0_3__Fa12a_8'
p65
F0.62403666666666668
sS'spe10_3_0_3_Da8a_Fa36a_2'
p66
F0.30108133333333331
sS'30_1_0__Da12a__12'
p67
F0.0024018250000000002
sS'spe10_3_0_3_Da8a_Fa36a_1'
p68
F0.6518221666666667
sS'30_8_0___Fa12a_1'
p69
F0.12296800000000001
sS'spe10_3_0_3_Da8a_Fa36a_4'
p70
F0.16173766666666667
sS'30_8_0_3___12'
p71
F0.013873866666666667
sS'spe10_3_0_3_Da8a_Fa36a_8'
p72
F0.098788916666666671
sS'100_8_0_3_Da8a__12'
p73
F0.52182983333333333
sS'30_1_0__Da2a_Fa24a_2'
p74
F0.0080788416666666679
sS'30_1_0__Da2a_Fa24a_1'
p75
F0.0079514966666666669
sS'spe10_3_0_3_Da8a__1'
p76
F0.64995333333333338
sS'spe10_3_0_3_Da8a__2'
p77
F0.3009648333333334
sS'spe10_3_0_3_Da8a__4'
p78
F0.16085983333333334
sS'spe10_3_0_3_Da8a__8'
p79
F0.098743766666666663
sS'80_3_0_3_Da12a__8'
p80
F0.051508749999999999
sS'30_1_0__Da8a_Fa36a_8'
p81
F0.0024490549999999999
sS'80_3_0_3_Da12a__1'
p82
F0.3089271666666667
sS'80_3_0_3_Da12a__2'
p83
F0.14078166666666667
sS'30_1_0__Da8a_Fa36a_4'
p84
F0.00394028
sS'80_3_0_3_Da12a__4'
p85
F0.077105699999999999
sS'30_1_0__Da8a_Fa36a_2'
p86
F0.0072629133333333333
sS'30_1_0__Da8a_Fa36a_1'
p87
F0.0078282750000000009
sS'100_3_0__Da4a_Fa24a_8'
p88
F0.20321883333333335
sS'30_1_0_3_Da8a_Fa12a_8'
p89
F0.0025661583333333334
sS'100_1_0_3__Fa24a_1'
p90
F0.29770016666666665
sS'100_3_0__Da4a_Fa24a_1'
p91
F0.63089833333333345
sS'spe10_3_0_3__Fa24a_12'
p92
F0.089465933333333345
sS'30_1_0_3_Da8a_Fa12a_2'
p93
F0.0046037583333333326
sS'30_1_0_3_Da8a_Fa12a_1'
p94
F0.0078474983333333328
sS'100_3_0__Da4a_Fa24a_4'
p95
F0.35355116666666669
sS'80_3_0___Fa18a_8'
p96
F0.089600633333333332
sS'80_3_0___Fa18a_1'
p97
F0.31003266666666668
sS'spe10_3_0__Da12a_Fa12a_12'
p98
F0.19953783333333333
sS'spe10_3_0_3_Da4a__12'
p99
F0.088099716666666661
sS'100_3_0_3_Da4a_Fa18a_8'
p100
F0.096134516666666656
sS'80_1_0_3_Da8a__8'
p101
F0.029697399999999999
sS'80_8_0__Da12a_Fa12a_2'
p102
F1.2503766666666667
sS'80_8_0__Da12a_Fa12a_4'
p103
F0.66719350000000011
sS'80_1_0_3_Da8a__1'
p104
F0.15209249999999999
sS'80_1_0_3_Da8a__2'
p105
F0.083600183333333342
sS'80_1_0_3_Da8a__4'
p106
F0.045492116666666665
sS'80_3_0_3___2'
p107
F0.14815533333333333
sS'30_8_0_3_Da12a_Fa12a_8'
p108
F0.028826866666666669
sS'80_8_0__Da8a__8'
p109
F0.32627866666666666
sS'30_8_0_3_Da12a_Fa12a_2'
p110
F0.055076050000000008
sS'30_8_0_3_Da12a_Fa12a_1'
p111
F0.12267783333333333
sS'80_8_0__Da8a__2'
p112
F1.1230983333333333
sS'30_8_0_3_Da12a_Fa12a_4'
p113
F0.031981566666666662
sS'100_8_0_3_Da8a_Fa18a_1'
p114
F4.7690700000000001
sS'80_3_0_3_Da12a_Fa24a_4'
p115
F0.076539233333333331
sS'100_8_0_3_Da8a_Fa18a_2'
p116
F1.9800649999999997
sS'80_3_0_3_Da12a_Fa24a_1'
p117
F0.31242933333333328
sS'100_8_0_3_Da8a_Fa18a_4'
p118
F1.0415883333333331
sS'80_3_0_3_Da12a_Fa24a_2'
p119
F0.14021133333333335
sS'100_8_0_3_Da8a_Fa18a_8'
p120
F0.63357766666666671
sS'80_3_0_3_Da12a_Fa24a_8'
p121
F0.051416366666666678
sS'100_3_0_3_Da4a_Fa18a_1'
p122
F0.62475533333333333
sS'spe10_3_0____12'
p123
F0.28449283333333336
sS'100_3_0_3_Da4a_Fa18a_2'
p124
F0.28655616666666667
sS'spe10_3_0__Da8a_Fa36a_12'
p125
F0.1759206666666667
sS'100_3_0__Da2a__12'
p126
F0.17959216666666666
sS'100_3_0__Da8a_Fa18a_12'
p127
F0.14615716666666667
sS'80_3_0_3___8'
p128
F0.049893716666666671
sS'spe10_3_0_3__Fa36a_8'
p129
F0.095867450000000007
sS'80_3_0_3_Da12a_Fa36a_12'
p130
F0.047896149999999998
sS'30_8_0_3_Da8a_Fa6a_12'
p131
F0.032374550000000002
sS'spe10_3_0_3__Fa36a_1'
p132
F0.64539483333333336
sS'spe10_3_0_3__Fa36a_4'
p133
F0.16254066666666667
sS'80_3_0___Fa24a_12'
p134
F0.068699316666666677
sS'80_1_0__Da4a_Fa6a_12'
p135
F0.088741449999999999
sS'80_8_0_3_Da12a_Fa18a_12'
p136
F0.29332050000000004
sS'80_8_0_3__Fa6a_1'
p137
F2.3910966666666669
sS'80_8_0_3__Fa6a_2'
p138
F1.0199066666666667
sS'80_8_0_3__Fa6a_4'
p139
F0.56087716666666665
sS'spe10_3_0_3__Fa18a_1'
p140
F0.64661583333333328
sS'80_1_0_3_Da4a_Fa18a_2'
p141
F0.08495528333333334
sS'100_8_0__Da12a_Fa6a_12'
p142
F1.0874900000000001
sS'30_1_0_3_Da2a_Fa12a_12'
p143
F0.0022082933333333332
sS'30_3_0__Da2a_Fa24a_8'
p144
F0.0047406816666666664
sS'80_8_0__Da8a_Fa6a_12'
p145
F0.51410266666666671
sS'30_3_0__Da2a_Fa24a_1'
p146
F0.0154682
sS'30_3_0__Da2a_Fa24a_2'
p147
F0.014737450000000001
sS'80_1_0_3_Da4a_Fa18a_1'
p148
F0.15187916666666668
sS'30_8_0___Fa12a_12'
p149
F0.01574438333333333
sS'100_3_0__Da2a_Fa36a_4'
p150
F0.32643916666666667
sS'100_3_0__Da2a_Fa36a_2'
p151
F0.61236083333333335
sS'100_3_0__Da2a_Fa36a_1'
p152
F0.63348916666666666
sS'100_3_0__Da2a_Fa36a_8'
p153
F0.18458316666666666
sS'30_8_0__Da12a_Fa36a_4'
p154
F0.030767133333333335
sS'100_3_0____1'
p155
F0.62765433333333331
sS'spe10_3_0__Da2a_Fa36a_12'
p156
F0.14175633333333335
sS'30_8_0__Da12a_Fa36a_1'
p157
F0.12278749999999999
sS'30_8_0__Da12a_Fa36a_2'
p158
F0.058756516666666668
sS'100_3_0____8'
p159
F0.31711899999999998
sS'30_8_0__Da12a_Fa36a_8'
p160
F0.017887733333333336
sS'30_3_0__Da2a_Fa24a_12'
p161
F0.0038621733333333332
sS'30_3_0__Da8a_Fa12a_2'
p162
F0.012777966666666666
sS'30_3_0__Da8a_Fa12a_1'
p163
F0.01547925
sS'30_3_0__Da8a_Fa12a_4'
p164
F0.00690655
sS'80_1_0__Da8a_Fa12a_12'
p165
F0.043168449999999997
sS'30_3_0__Da8a_Fa12a_8'
p166
F0.0044947116666666674
sS'80_3_0__Da8a__8'
p167
F0.084879016666666682
sS'80_3_0__Da8a__2'
p168
F0.29600816666666668
sS'80_3_0__Da8a__1'
p169
F0.31000333333333335
sS'80_3_0__Da8a__4'
p170
F0.15295583333333332
sS'80_3_0__Da2a_Fa6a_12'
p171
F0.15939983333333332
sS'80_8_0__Da2a_Fa12a_8'
p172
F0.39917050000000004
sS'100_3_0__Da12a_Fa6a_4'
p173
F0.47693599999999997
sS'100_1_0_3_Da2a_Fa36a_4'
p174
F0.092774199999999987
sS'80_8_0__Da2a_Fa12a_2'
p175
F1.2617533333333333
sS'80_8_0__Da2a_Fa12a_1'
p176
F2.3997116666666667
sS'80_3_0__Da12a_Fa24a_12'
p177
F0.077981433333333336
sS'80_8_0__Da2a_Fa12a_4'
p178
F0.65986783333333332
sS'80_8_0_3___8'
p179
F0.30062349999999999
sS'30_3_0_3_Da8a__8'
p180
F0.0043077750000000007
sS'30_8_0_3_Da2a_Fa18a_8'
p181
F0.019266933333333333
sS'30_8_0_3_Da2a_Fa18a_4'
p182
F0.028698683333333332
sS'30_3_0_3_Da8a__2'
p183
F0.0075116083333333326
sS'30_3_0_3_Da8a__1'
p184
F0.015380200000000002
sS'80_8_0_3___2'
p185
F1.01695
sS'30_8_0_3_Da2a_Fa18a_1'
p186
F0.122789
sS'30_8_0_3_Da2a_Fa18a_2'
p187
F0.052808933333333336
sS'30_3_0_3_Da8a__4'
p188
F0.0046182699999999998
sS'30_8_0___Fa6a_4'
p189
F0.031466016666666673
sS'80_1_0__Da2a_Fa18a_8'
p190
F0.049277783333333325
sS'30_8_0___Fa6a_1'
p191
F0.12346433333333334
sS'30_8_0___Fa6a_2'
p192
F0.057593066666666665
sS'80_1_0__Da2a_Fa18a_4'
p193
F0.08264461666666667
sS'30_8_0___Fa6a_8'
p194
F0.025899550000000004
sS'80_1_0__Da2a_Fa18a_1'
p195
F0.14940149999999999
sS'80_1_0__Da2a_Fa18a_2'
p196
F0.15545683333333335
sS'80_3_0__Da4a_Fa24a_1'
p197
F0.31050483333333334
sS'100_8_0__Da8a_Fa6a_4'
p198
F1.2247183333333334
sS'spe10_3_0_3__Fa36a_12'
p199
F0.081688766666666676
sS'30_3_0__Da8a_Fa36a_12'
p200
F0.0032856416666666669
sS'30_1_0_3_Da12a__12'
p201
F0.00283228
sS'30_1_0__Da4a_Fa18a_12'
p202
F0.0025791400000000002
sS'80_8_0_3_Da12a_Fa36a_8'
p203
F0.33289783333333334
sS'100_1_0_3_Da4a__12'
p204
F0.046343099999999998
sS'100_3_0__Da2a_Fa36a_12'
p205
F0.14199483333333332
sS'100_1_0__Da4a_Fa18a_12'
p206
F0.09784746666666666
sS'80_1_0_3_Da8a_Fa24a_12'
p207
F0.026938333333333338
sS'spe10_3_0___Fa18a_8'
p208
F0.18370633333333333
sS'100_3_0_3_Da4a_Fa36a_8'
p209
F0.095029450000000001
sS'spe10_3_0___Fa18a_4'
p210
F0.32691083333333332
sS'spe10_3_0___Fa18a_2'
p211
F0.61616083333333338
sS'spe10_3_0___Fa18a_1'
p212
F0.64638399999999996
sS'100_1_0_3___8'
p213
F0.058371833333333338
sS'100_1_0_3_Da12a_Fa6a_2'
p214
F0.16430266666666668
sS'30_3_0__Da12a_Fa6a_12'
p215
F0.0072766583333333341
sS'30_8_0_3_Da8a_Fa12a_8'
p216
F0.027408716666666666
sS'100_8_0_3_Da2a_Fa24a_1'
p217
F4.7896983333333338
sS'100_8_0_3_Da2a_Fa24a_2'
p218
F1.9812433333333335
sS'30_8_0_3_Da8a_Fa12a_4'
p219
F0.031388816666666659
sS'100_1_0_3___1'
p220
F0.29758583333333338
sS'100_1_0_3___2'
p221
F0.17758350000000001
sS'100_1_0_3___4'
p222
F0.095633933333333351
sS'30_8_0_3_Da8a_Fa12a_1'
p223
F0.12253233333333335
sS'30_8_0_3_Da8a_Fa12a_2'
p224
F0.054428399999999995
sS'30_1_0___Fa24a_12'
p225
F0.0022456566666666667
sS'100_8_0__Da2a__2'
p226
F2.4979749999999998
sS'100_3_0___Fa36a_4'
p227
F0.32592166666666672
sS'80_8_0_3_Da4a__12'
p228
F0.24709
sS'100_8_0__Da2a__8'
p229
F0.71364933333333325
sS'80_3_0__Da8a__12'
p230
F0.064226149999999996
sS'100_8_0_3_Da4a_Fa36a_12'
p231
F0.47439016666666672
sS'30_8_0___Fa36a_12'
p232
F0.013253566666666669
sS'100_1_0_3_Da8a_Fa6a_1'
p233
F0.29601216666666669
sS'100_8_0___Fa6a_12'
p234
F1.1347700000000001
sS'30_1_0__Da12a_Fa12a_1'
p235
F0.0078824499999999992
sS'30_1_0__Da12a_Fa12a_2'
p236
F0.008379696666666667
sS'30_1_0__Da12a_Fa12a_4'
p237
F0.0046177283333333329
sS'30_1_0__Da12a_Fa12a_8'
p238
F0.0032951249999999999
sS'30_3_0_3_Da4a_Fa24a_12'
p239
F0.0033648483333333333
sS'100_8_0___Fa6a_8'
p240
F1.0598516666666666
sS'100_8_0___Fa6a_2'
p241
F2.5839566666666665
sS'100_8_0___Fa6a_1'
p242
F4.7770116666666675
sS'30_1_0_3_Da2a__12'
p243
F0.0020957149999999997
sS'100_8_0___Fa6a_4'
p244
F1.3831366666666669
sS'80_1_0__Da4a_Fa24a_12'
p245
F0.042662266666666664
sS'100_1_0_3_Da2a_Fa18a_12'
p246
F0.047795766666666663
sS'100_1_0_3_Da2a_Fa36a_2'
p247
F0.17411799999999999
sS'100_8_0____12'
p248
F0.6132331666666665
sS'30_8_0__Da8a_Fa18a_8'
p249
F0.016930399999999998
sS'30_8_0__Da8a_Fa18a_4'
p250
F0.029001200000000001
sS'80_8_0_3_Da4a_Fa18a_12'
p251
F0.25642649999999995
sS'30_8_0__Da8a_Fa18a_2'
p252
F0.055506933333333335
sS'30_8_0__Da8a_Fa18a_1'
p253
F0.12229449999999999
sS'100_3_0__Da2a_Fa6a_1'
p254
F0.63669866666666664
sS'100_3_0_3_Da2a_Fa12a_2'
p255
F0.29452983333333332
sS'100_1_0__Da2a_Fa12a_12'
p256
F0.10993266666666666
sS'100_1_0__Da4a_Fa18a_2'
p257
F0.35241633333333339
sS'100_8_0__Da12a__12'
p258
F0.54069766666666663
sS'100_3_0__Da8a_Fa12a_2'
p259
F0.60370316666666657
sS'30_3_0_3_Da2a__12'
p260
F0.0034725266666666664
sS'30_8_0__Da4a_Fa12a_12'
p261
F0.016169166666666665
sS'80_3_0_3_Da8a_Fa18a_12'
p262
F0.049939816666666664
sS'30_1_0_3_Da8a_Fa18a_12'
p263
F0.0027401883333333329
sS'80_3_0_3_Da2a__8'
p264
F0.048970516666666665
sS'100_3_0__Da8a_Fa12a_1'
p265
F0.62773483333333335
sS'80_3_0_3_Da2a__1'
p266
F0.31210533333333329
sS'80_3_0_3_Da2a__2'
p267
F0.14803566666666668
sS'80_8_0_3_Da8a_Fa6a_12'
p268
F0.50778183333333338
sS'80_3_0_3_Da2a__4'
p269
F0.079488033333333333
sS'100_3_0__Da8a_Fa12a_4'
p270
F0.31712049999999997
sS'80_3_0__Da4a_Fa6a_8'
p271
F0.15016316666666668
sS'80_8_0_3_Da12a_Fa36a_12'
p272
F0.2840873333333333
sS'80_3_0__Da4a_Fa6a_4'
p273
F0.22102966666666665
sS'30_8_0_3__Fa24a_12'
p274
F0.013845349999999999
sS'80_3_0__Da4a_Fa6a_2'
p275
F0.32386883333333333
sS'80_3_0__Da4a_Fa6a_1'
p276
F0.31060283333333333
sS'100_1_0__Da4a_Fa18a_8'
p277
F0.11448700000000001
sS'30_8_0_3__Fa36a_8'
p278
F0.016969983333333338
sS'100_3_0_3_Da2a_Fa24a_4'
p279
F0.15439183333333331
sS'30_8_0_3__Fa36a_4'
p280
F0.027976550000000003
sS'30_8_0_3__Fa36a_2'
p281
F0.052878716666666666
sS'80_3_0_3__Fa12a_8'
p282
F0.05171138333333334
sS'30_8_0_3__Fa36a_1'
p283
F0.12267583333333332
sS'30_8_0__Da4a__12'
p284
F0.013747733333333331
sS'80_8_0__Da4a__8'
p285
F0.36358683333333336
sS'30_3_0_3_Da2a_Fa36a_8'
p286
F0.00342663
sS'100_8_0_3__Fa18a_8'
p287
F0.60737433333333335
sS'30_3_0_3_Da2a_Fa36a_4'
p288
F0.0045202416666666667
sS'80_8_0__Da4a__1'
p289
F2.3992799999999996
sS'30_3_0_3_Da2a_Fa36a_1'
p290
F0.015372333333333335
sS'100_3_0__Da8a_Fa6a_8'
p291
F0.27491116666666665
sS'30_3_0_3_Da2a_Fa36a_2'
p292
F0.0078584699999999993
sS'spe10_3_0_3__Fa6a_1'
p293
F0.64987033333333333
sS'spe10_3_0_3__Fa6a_2'
p294
F0.30282883333333327
sS'spe10_3_0_3__Fa6a_4'
p295
F0.18923316666666667
sS'80_1_0___Fa18a_12'
p296
F0.041823916666666662
sS'100_8_0__Da12a_Fa24a_1'
p297
F4.7748966666666659
sS'spe10_3_0_3__Fa6a_8'
p298
F0.19869300000000001
sS'80_1_0__Da2a_Fa24a_12'
p299
F0.039496999999999997
sS'80_3_0___Fa6a_2'
p300
F0.30532199999999998
sS'100_8_0__Da12a_Fa36a_4'
p301
F1.2745666666666666
sS'100_8_0__Da12a_Fa36a_2'
p302
F2.4306549999999998
sS'100_8_0__Da12a_Fa36a_1'
p303
F4.7681100000000001
sS'100_8_0__Da12a_Fa24a_4'
p304
F1.2851333333333332
sS'100_8_0_3_Da4a_Fa6a_12'
p305
F0.91254483333333336
sS'100_8_0__Da12a_Fa36a_8'
p306
F0.73900033333333337
sS'100_3_0__Da8a_Fa6a_2'
p307
F0.6376750000000001
sS'100_3_0___Fa6a_8'
p308
F0.31366083333333333
sS'100_8_0_3_Da8a_Fa6a_2'
p309
F2.0063583333333335
sS'80_1_0__Da12a__12'
p310
F0.043304033333333332
sS'100_3_0___Fa6a_2'
p311
F0.68565500000000001
sS'100_3_0___Fa6a_1'
p312
F0.63059233333333342
sS'100_3_0___Fa6a_4'
p313
F0.39347466666666669
sS'80_3_0_3_Da2a_Fa18a_2'
p314
F0.14894600000000002
sS'80_3_0_3_Da2a_Fa18a_1'
p315
F0.31291249999999998
sS'80_3_0_3__Fa12a_12'
p316
F0.050576283333333333
sS'80_3_0_3_Da2a_Fa18a_4'
p317
F0.078647316666666675
sS'80_3_0_3_Da2a_Fa18a_8'
p318
F0.049043116666666664
sS'100_3_0__Da4a_Fa6a_1'
p319
F0.63091366666666671
sS'80_1_0__Da2a__12'
p320
F0.06579101666666666
sS'100_1_0_3_Da12a_Fa6a_8'
p321
F0.078697133333333336
sS'80_3_0_3__Fa36a_8'
p322
F0.048928483333333328
sS'30_3_0__Da12a__8'
p323
F0.0047289933333333331
sS'spe10_3_0__Da2a_Fa6a_8'
p324
F0.33048083333333333
sS'100_1_0_3_Da8a__4'
p325
F0.089257533333333319
sS'100_8_0__Da8a_Fa36a_4'
p326
F1.1698599999999999
sS'spe10_3_0_3___12'
p327
F0.095642416666666674
sS'80_3_0_3__Fa36a_1'
p328
F0.30985833333333335
sS'80_3_0_3__Fa36a_2'
p329
F0.14943616666666668
sS'spe10_3_0__Da2a_Fa6a_1'
p330
F0.65317133333333344
sS'80_3_0_3__Fa36a_4'
p331
F0.080001416666666672
sS'30_3_0__Da12a__4'
p332
F0.0080506166666666681
sS'spe10_3_0__Da2a_Fa6a_4'
p333
F0.43672883333333329
sS'spe10_3_0_3__Fa12a_8'
p334
F0.12073133333333332
sS'80_1_0__Da12a_Fa24a_12'
p335
F0.043130066666666668
sS'spe10_3_0_3__Fa12a_2'
p336
F0.30487300000000001
sS'spe10_3_0_3__Fa12a_4'
p337
F0.16059783333333336
sS'spe10_3_0__Da8a_Fa6a_1'
p338
F0.65109316666666672
sS'spe10_3_0__Da8a_Fa6a_2'
p339
F0.82122833333333334
sS'spe10_3_0__Da8a_Fa6a_4'
p340
F0.57445083333333335
sS'spe10_3_0__Da8a_Fa6a_8'
p341
F0.3430083333333333
sS'100_8_0_3_Da12a_Fa18a_2'
p342
F1.9865183333333334
sS'100_8_0_3_Da12a_Fa18a_4'
p343
F1.0417916666666667
sS'30_8_0_3_Da8a_Fa18a_2'
p344
F0.05410726666666666
sS'30_8_0_3_Da8a_Fa18a_1'
p345
F0.12224666666666667
sS'30_8_0_3_Da8a_Fa18a_4'
p346
F0.031475599999999999
sS'30_8_0_3_Da8a_Fa18a_8'
p347
F0.027408433333333333
sS'100_1_0__Da12a_Fa6a_2'
p348
F0.36860200000000004
sS'80_8_0___Fa18a_2'
p349
F1.2622600000000002
sS'80_8_0___Fa18a_1'
p350
F2.3938700000000002
sS'spe10_3_0_3_Da4a__2'
p351
F0.30913266666666667
sS'80_8_0___Fa18a_4'
p352
F0.65702766666666668
sS'30_3_0_3_Da12a_Fa24a_12'
p353
F0.0046257783333333337
sS'80_1_0_3_Da12a_Fa24a_12'
p354
F0.026126616666666668
sS'80_8_0___Fa18a_8'
p355
F0.37974616666666661
sS'30_1_0___Fa36a_2'
p356
F0.0078781333333333339
sS'100_3_0__Da8a_Fa12a_8'
p357
F0.19398516666666665
sS'30_8_0__Da2a_Fa12a_12'
p358
F0.0157704
sS'30_3_0__Da2a_Fa36a_12'
p359
F0.0037597216666666669
sS'spe10_3_0_3_Da8a_Fa6a_1'
p360
F0.64934983333333329
sS'spe10_3_0_3_Da8a_Fa6a_2'
p361
F0.30400050000000001
sS'30_1_0_3_Da8a__12'
p362
F0.0027787433333333333
sS'spe10_3_0_3_Da8a_Fa6a_4'
p363
F0.182445
sS'80_1_0__Da8a_Fa18a_8'
p364
F0.043985640000000006
sS'spe10_3_0_3_Da8a_Fa6a_8'
p365
F0.17956016666666666
sS'80_1_0__Da8a_Fa18a_4'
p366
F0.075687499999999991
sS'80_1_0__Da8a_Fa18a_2'
p367
F0.14241566666666663
sS'30_1_0_3_Da8a_Fa36a_12'
p368
F0.0027768199999999997
sS'30_1_0_3_Da12a_Fa18a_4'
p369
F0.0028177766666666669
sS'30_1_0_3_Da12a_Fa18a_1'
p370
F0.0078960266666666667
sS'30_1_0_3_Da12a_Fa18a_2'
p371
F0.0044551016666666667
sS'100_1_0_3__Fa6a_12'
p372
F0.084901100000000007
sS'30_1_0_3_Da12a_Fa18a_8'
p373
F0.0027101883333333337
sS'100_8_0___Fa24a_4'
p374
F1.3075650000000001
sS'80_8_0__Da4a_Fa36a_12'
p375
F0.29246649999999996
sS'30_1_0___Fa36a_8'
p376
F0.0027079633333333335
sS'100_3_0__Da8a_Fa24a_2'
p377
F0.57847599999999999
sS'100_8_0___Fa24a_1'
p378
F4.7743816666666667
sS'80_8_0__Da12a_Fa36a_2'
p379
F1.2278616666666666
sS'80_8_0__Da12a_Fa36a_1'
p380
F2.3931466666666665
sS'80_8_0__Da12a_Fa36a_4'
p381
F0.64304583333333343
sS'80_8_0__Da12a_Fa36a_8'
p382
F0.37105433333333332
sS'80_1_0__Da12a_Fa24a_1'
p383
F0.15484099999999998
sS'80_1_0_3_Da12a_Fa18a_8'
p384
F0.029447850000000001
sS'100_3_0_3_Da8a_Fa6a_8'
p385
F0.13752466666666666
sS'100_3_0__Da8a_Fa36a_12'
p386
F0.12769983333333335
sS'80_1_0_3_Da12a_Fa18a_1'
p387
F0.15110999999999999
sS'80_1_0_3_Da12a_Fa18a_2'
p388
F0.082115450000000006
sS'100_3_0_3_Da8a_Fa6a_1'
p389
F0.63051983333333339
sS'80_1_0_3_Da12a_Fa18a_4'
p390
F0.044338966666666667
sS'100_3_0_3_Da8a_Fa6a_4'
p391
F0.15923383333333332
sS'80_1_0__Da12a_Fa18a_8'
p392
F0.053806399999999997
sS'30_3_0_3_Da4a_Fa18a_12'
p393
F0.0033361816666666669
sS'80_8_0__Da2a_Fa36a_12'
p394
F0.28401333333333334
sS'80_1_0__Da12a_Fa18a_1'
p395
F0.15566349999999998
sS'80_1_0__Da12a_Fa18a_2'
p396
F0.16634783333333333
sS'80_1_0__Da12a_Fa24a_4'
p397
F0.087999333333333332
sS'80_1_0__Da12a_Fa18a_4'
p398
F0.088543366666666665
sS'100_1_0_3__Fa18a_12'
p399
F0.048409749999999994
sS'30_8_0__Da12a_Fa12a_12'
p400
F0.0167104
sS'80_1_0__Da8a__12'
p401
F0.038992816666666673
sS'30_1_0_3__Fa36a_12'
p402
F0.0017678033333333332
sS'spe10_3_0__Da12a_Fa36a_1'
p403
F0.6512541666666668
sS'spe10_3_0__Da12a_Fa36a_2'
p404
F0.7622753333333333
sS'80_8_0___Fa36a_4'
p405
F0.63218483333333331
sS'spe10_3_0__Da12a_Fa36a_4'
p406
F0.41000983333333335
sS'80_8_0___Fa36a_2'
p407
F1.2552416666666668
sS'80_1_0_3_Da2a_Fa12a_12'
p408
F0.028321450000000001
sS'spe10_3_0__Da12a_Fa36a_8'
p409
F0.23084466666666667
sS'100_8_0_3_Da4a_Fa24a_12'
p410
F0.47906483333333333
sS'80_8_0___Fa36a_8'
p411
F0.36233283333333333
sS'80_8_0___Fa24a_1'
p412
F2.4028700000000001
sS'80_8_0___Fa24a_2'
p413
F1.2539100000000001
sS'80_8_0___Fa24a_4'
p414
F0.64527866666666667
sS'80_8_0__Da2a_Fa18a_2'
p415
F1.2389116666666664
sS'80_1_0_3___12'
p416
F0.024946116666666671
sS'80_8_0__Da2a_Fa18a_8'
p417
F0.37955066666666665
sS'100_3_0__Da4a_Fa36a_4'
p418
F0.35035016666666663
sS'100_3_0__Da4a_Fa36a_1'
p419
F0.63126749999999998
sS'100_3_0__Da4a_Fa36a_2'
p420
F0.67874783333333333
sS'100_3_0__Da4a_Fa36a_8'
p421
F0.1986675
sS'30_3_0__Da12a_Fa12a_12'
p422
F0.0046566200000000002
sS'100_1_0_3__Fa6a_8'
p423
F0.080219983333333328
sS'30_3_0__Da12a_Fa18a_4'
p424
F0.0078923650000000001
sS'30_3_0__Da12a_Fa18a_1'
p425
F0.015323783333333335
sS'30_8_0_3_Da8a_Fa18a_12'
p426
F0.02876565
sS'30_3_0__Da12a_Fa18a_2'
p427
F0.014507016666666666
sS'100_1_0_3__Fa6a_1'
p428
F0.29864050000000003
sS'100_1_0_3__Fa6a_2'
p429
F0.17705983333333333
sS'100_1_0_3__Fa6a_4'
p430
F0.0988536
sS'30_3_0__Da12a_Fa18a_8'
p431
F0.0048762149999999997
sS'80_1_0_3_Da2a_Fa6a_8'
p432
F0.041335716666666668
sS'80_1_0_3_Da2a_Fa6a_2'
p433
F0.088747683333333327
sS'30_8_0_3_Da12a_Fa24a_12'
p434
F0.029811383333333333
sS'80_1_0_3_Da2a_Fa6a_1'
p435
F0.15158083333333336
sS'80_1_0_3_Da2a_Fa6a_4'
p436
F0.050440149999999996
sS'30_8_0__Da12a_Fa6a_4'
p437
F0.039527383333333332
sS'30_1_0_3_Da2a_Fa6a_8'
p438
F0.0028235933333333328
sS'30_8_0__Da12a_Fa6a_2'
p439
F0.060539450000000002
sS'30_8_0___Fa12a_2'
p440
F0.057371833333333337
sS'30_8_0__Da12a_Fa6a_1'
p441
F0.122763
sS'30_1_0_3_Da2a_Fa6a_2'
p442
F0.0048067266666666671
sS'30_1_0_3_Da2a_Fa6a_1'
p443
F0.0078656899999999998
sS'30_3_0_3_Da2a_Fa12a_4'
p444
F0.0045333000000000005
sS'30_3_0_3_Da2a_Fa12a_2'
p445
F0.0078415633333333342
sS'30_3_0_3_Da2a_Fa12a_1'
p446
F0.015307816666666668
sS'30_1_0_3_Da2a_Fa6a_4'
p447
F0.0029552366666666667
sS'30_3_0___Fa6a_4'
p448
F0.0087845449999999995
sS'100_8_0__Da4a_Fa18a_12'
p449
F0.65266633333333324
sS'30_3_0___Fa6a_1'
p450
F0.015375516666666667
sS'100_3_0__Da4a__12'
p451
F0.16387650000000001
sS'30_3_0___Fa6a_2'
p452
F0.015091633333333335
sS'30_3_0___Fa6a_8'
p453
F0.0071919033333333335
sS'80_3_0_3_Da4a_Fa18a_12'
p454
F0.045930616666666667
sS'100_1_0___Fa36a_12'
p455
F0.075495866666666661
sS'80_1_0___Fa24a_12'
p456
F0.038540399999999995
sS'30_8_0___Fa12a_8'
p457
F0.018537666666666664
sS'spe10_3_0_3_Da8a_Fa24a_12'
p458
F0.095912533333333327
sS'100_3_0___Fa24a_4'
p459
F0.32732016666666669
sS'80_1_0_3_Da8a_Fa12a_8'
p460
F0.030530249999999998
sS'100_3_0___Fa24a_2'
p461
F0.64684983333333335
sS'100_3_0___Fa24a_1'
p462
F0.62845150000000005
sS'30_1_0_3_Da12a_Fa36a_12'
p463
F0.0028301566666666667
sS'30_1_0__Da8a_Fa24a_12'
p464
F0.00204295
sS'spe10_3_0_3_Da8a_Fa12a_4'
p465
F0.16298366666666664
sS'80_1_0_3_Da8a_Fa12a_1'
p466
F0.15220449999999999
sS'80_1_0_3_Da8a_Fa12a_2'
p467
F0.084600449999999994
sS'100_3_0___Fa24a_8'
p468
F0.18441633333333332
sS'100_1_0____8'
p469
F0.24727399999999999
sS'100_8_0_3_Da8a_Fa36a_4'
p470
F1.0388999999999999
sS'80_1_0_3_Da12a_Fa6a_4'
p471
F0.045085133333333333
sS'80_1_0_3_Da12a_Fa6a_2'
p472
F0.082036816666666665
sS'30_8_0__Da2a_Fa24a_8'
p473
F0.017498616666666668
sS'100_1_0____1'
p474
F0.29943649999999994
sS'100_1_0____2'
p475
F0.64805699999999999
sS'30_8_0__Da2a_Fa24a_4'
p476
F0.030263083333333333
sS'100_1_0____4'
p477
F0.36485733333333337
sS'30_8_0_3_Da4a_Fa18a_12'
p478
F0.018348283333333333
sS'30_8_0__Da2a_Fa24a_1'
p479
F0.12251466666666666
sS'80_3_0__Da12a__12'
p480
F0.072452699999999995
sS'80_1_0_3_Da8a_Fa36a_4'
p481
F0.044611333333333329
sS'80_1_0_3_Da8a_Fa36a_2'
p482
F0.085115933333333338
sS'80_1_0_3_Da8a_Fa36a_1'
p483
F0.15002550000000001
sS'100_8_0__Da8a_Fa18a_4'
p484
F1.1909916666666667
sS'100_8_0__Da8a_Fa18a_2'
p485
F2.2843599999999999
sS'80_1_0_3_Da8a_Fa36a_8'
p486
F0.0294097
sS'100_8_0_3_Da4a__8'
p487
F0.60006883333333327
sS'80_3_0_3_Da8a_Fa6a_4'
p488
F0.079975316666666671
sS'100_8_0_3_Da4a__4'
p489
F1.0230566666666665
sS'100_1_0__Da8a_Fa36a_12'
p490
F0.06912296666666666
sS'100_8_0_3_Da4a__1'
p491
F4.7713683333333332
sS'100_8_0_3_Da4a__2'
p492
F1.9671050000000001
sS'100_8_0__Da2a_Fa6a_1'
p493
F4.7641733333333329
sS'30_1_0_3_Da4a_Fa24a_12'
p494
F0.0020427566666666665
sS'100_8_0_3_Da4a_Fa12a_12'
p495
F0.55300833333333321
sS'80_3_0___Fa12a_8'
p496
F0.10041288333333333
sS'80_3_0_3_Da8a_Fa24a_4'
p497
F0.077483566666666656
sS'80_8_0__Da4a_Fa24a_12'
p498
F0.3032798333333333
sS'spe10_3_0__Da2a_Fa24a_12'
p499
F0.14939566666666665
sS'80_3_0_3_Da8a_Fa24a_1'
p500
F0.30969183333333333
sS'80_3_0___Fa12a_2'
p501
F0.29989850000000001
sS'100_8_0_3__Fa24a_12'
p502
F0.46668933333333334
sS'80_3_0___Fa12a_1'
p503
F0.31303399999999998
sS'80_3_0___Fa12a_4'
p504
F0.15844966666666668
sS'80_3_0_3_Da8a_Fa24a_8'
p505
F0.051583983333333333
sS'spe10_3_0_3_Da4a_Fa18a_12'
p506
F0.10411350000000001
sS'30_1_0_3_Da8a__2'
p507
F0.0045574999999999999
sS'30_1_0_3_Da8a__4'
p508
F0.0028229333333333333
sS'80_3_0__Da4a_Fa24a_12'
p509
F0.076447000000000001
sS'30_1_0_3_Da8a__8'
p510
F0.0026033316666666667
sS'80_3_0__Da8a_Fa18a_8'
p511
F0.082945000000000005
sS'80_3_0__Da4a__4'
p512
F0.1818751666666667
sS'80_3_0__Da4a__2'
p513
F0.34044266666666662
sS'100_8_0_3__Fa18a_12'
p514
F0.47848933333333332
sS'80_3_0__Da4a__1'
p515
F0.31268800000000002
sS'80_8_0_3_Da4a_Fa24a_2'
p516
F1.0042095
sS'80_3_0__Da8a_Fa18a_1'
p517
F0.31326183333333329
sS'80_3_0__Da8a_Fa18a_2'
p518
F0.26893533333333336
sS'80_8_0_3_Da4a_Fa24a_1'
p519
F2.4043100000000002
sS'80_3_0__Da8a_Fa18a_4'
p520
F0.14198466666666668
sS'80_3_0__Da4a__8'
p521
F0.10310933333333332
sS'30_8_0____12'
p522
F0.015761233333333336
sS'spe10_3_0_3_Da4a_Fa36a_4'
p523
F0.16492566666666664
sS'30_3_0__Da4a__8'
p524
F0.0051135466666666664
sS'30_3_0__Da4a__1'
p525
F0.015376766666666666
sS'100_1_0__Da8a_Fa12a_12'
p526
F0.087318733333333343
sS'30_3_0__Da4a__2'
p527
F0.015913099999999999
sS'30_3_0__Da4a__4'
p528
F0.0086545483333333329
sS'30_3_0_3_Da12a_Fa6a_12'
p529
F0.0050925149999999997
sS'80_8_0_3_Da2a__12'
p530
F0.24237649999999999
sS'100_8_0__Da12a_Fa18a_12'
p531
F0.6721828333333334
sS'100_1_0__Da4a_Fa12a_8'
p532
F0.12864766666666666
sS'30_1_0_3_Da4a_Fa36a_12'
p533
F0.0020482783333333333
sS'100_8_0_3_Da2a_Fa24a_4'
p534
F1.0307533333333332
sS'100_8_0_3___1'
p535
F4.7733516666666667
sS'100_8_0_3___2'
p536
F1.9833000000000001
sS'100_8_0_3___4'
p537
F1.0261283333333333
sS'100_8_0_3_Da4a_Fa18a_4'
p538
F1.0354816666666666
sS'100_8_0_3___8'
p539
F0.58732799999999996
sS'30_8_0__Da8a_Fa24a_12'
p540
F0.013183416666666668
sS'spe10_3_0___Fa6a_8'
p541
F0.31803149999999997
sS'spe10_3_0_3_Da2a_Fa24a_12'
p542
F0.090902116666666685
sS'spe10_3_0__Da4a_Fa12a_4'
p543
F0.39091999999999999
sS'100_1_0_3_Da8a_Fa24a_12'
p544
F0.048908466666666671
sS'spe10_3_0__Da4a_Fa12a_1'
p545
F0.65225616666666664
sS'spe10_3_0__Da4a_Fa12a_2'
p546
F0.70159433333333343
sS'30_1_0__Da12a_Fa6a_8'
p547
F0.0041241383333333334
sS'30_1_0__Da12a_Fa6a_4'
p548
F0.005739706666666667
sS'spe10_3_0__Da4a_Fa12a_8'
p549
F0.26672716666666668
sS'30_1_0__Da12a_Fa6a_2'
p550
F0.0084935950000000014
sS'30_1_0__Da12a_Fa6a_1'
p551
F0.0078360116666666649
sS'100_8_0__Da2a_Fa36a_12'
p552
F0.58301349999999996
sS'80_3_0_3__Fa12a_2'
p553
F0.14791133333333331
sS'80_3_0_3__Fa12a_1'
p554
F0.30864199999999997
sS'30_3_0_3_Da8a_Fa24a_8'
p555
F0.0042812549999999994
sS'80_3_0_3__Fa12a_4'
p556
F0.079353283333333344
sS'100_3_0__Da4a_Fa24a_2'
p557
F0.66665833333333335
sS'30_3_0_3_Da8a_Fa24a_4'
p558
F0.0046270116666666666
sS'spe10_3_0_3_Da2a_Fa6a_2'
p559
F0.31024766666666664
sS'30_3_0_3_Da8a_Fa24a_1'
p560
F0.015338866666666666
sS'30_3_0_3_Da8a_Fa24a_2'
p561
F0.0074867699999999994
sS'100_8_0_3_Da8a_Fa6a_1'
p562
F4.7745400000000009
sS'100_3_0__Da4a_Fa6a_4'
p563
F0.45675833333333338
sS'30_1_0_3_Da8a_Fa12a_4'
p564
F0.0028300516666666668
sS'100_3_0__Da4a_Fa6a_2'
p565
F0.72521683333333342
sS'100_8_0_3_Da8a_Fa6a_4'
p566
F1.0777983333333332
sS'30_8_0__Da12a_Fa12a_8'
p567
F0.02156248333333333
sS'80_1_0_3___1'
p568
F0.15060533333333334
sS'100_8_0_3_Da8a_Fa6a_8'
p569
F0.90058283333333333
sS'30_8_0__Da12a_Fa12a_4'
p570
F0.031615399999999995
sS'30_8_0__Da12a_Fa12a_2'
p571
F0.058906750000000001
sS'100_3_0__Da4a_Fa6a_8'
p572
F0.32269916666666665
sS'30_8_0__Da12a_Fa12a_1'
p573
F0.12326616666666668
sS'80_1_0__Da8a__4'
p574
F0.087064916666666672
sS'30_3_0__Da12a_Fa24a_12'
p575
F0.0039967600000000002
sS'spe10_3_0___Fa6a_2'
p576
F0.63892983333333342
sS'80_1_0__Da8a__1'
p577
F0.15150433333333332
sS'80_1_0__Da8a__2'
p578
F0.17004616666666669
sS'100_8_0__Da4a_Fa24a_8'
p579
F0.77233916666666669
sS'80_1_0__Da8a__8'
p580
F0.050439650000000003
sS'100_8_0_3_Da4a_Fa18a_8'
p581
F0.60697066666666666
sS'80_3_0_3__Fa6a_12'
p582
F0.076359166666666659
sS'30_1_0_3___1'
p583
F0.0078487233333333333
sS'100_1_0_3_Da8a__12'
p584
F0.047915216666666677
sS'30_3_0__Da2a_Fa6a_12'
p585
F0.0077253633333333347
sS'100_3_0_3_Da12a_Fa24a_1'
p586
F0.63080100000000006
sS'100_3_0_3_Da12a_Fa24a_2'
p587
F0.28476466666666672
sS'100_3_0_3_Da12a_Fa24a_4'
p588
F0.15178333333333335
sS'30_3_0___Fa18a_12'
p589
F0.0039453833333333334
sS'100_8_0___Fa18a_4'
p590
F1.3181800000000001
sS'100_3_0_3_Da12a_Fa12a_12'
p591
F0.10339833333333333
sS'100_8_0___Fa18a_2'
p592
F2.5342600000000002
sS'100_8_0___Fa18a_1'
p593
F4.7802083333333325
sS'100_8_0_3_Da4a_Fa18a_1'
p594
F4.7710533333333336
sS'30_8_0_3_Da2a__12'
p595
F0.018147233333333335
sS'100_8_0___Fa18a_8'
p596
F0.76283066666666677
sS'spe10_3_0_3_Da8a_Fa18a_12'
p597
F0.10365316666666667
sS'100_8_0__Da12a_Fa6a_4'
p598
F1.7039116666666665
sS'80_1_0__Da2a_Fa12a_8'
p599
F0.055656616666666665
sS'80_8_0_3_Da2a_Fa12a_4'
p600
F0.53326233333333328
sS'30_8_0_3_Da12a_Fa36a_12'
p601
F0.029982016666666667
sS'80_1_0__Da2a_Fa12a_4'
p602
F0.084338800000000005
sS'80_1_0__Da2a_Fa12a_2'
p603
F0.15591833333333335
sS'80_3_0___Fa18a_2'
p604
F0.29611266666666664
sS'80_1_0__Da2a_Fa12a_1'
p605
F0.15343300000000001
sS'100_1_0___Fa18a_2'
p606
F0.31827816666666664
sS'spe10_3_0___Fa6a_1'
p607
F0.65152200000000005
sS'spe10_3_0_3_Da12a_Fa12a_8'
p608
F0.118551
sS'100_1_0___Fa18a_1'
p609
F0.29864716666666669
sS'spe10_3_0___Fa6a_4'
p610
F0.38890599999999997
sS'100_1_0___Fa18a_4'
p611
F0.16968966666666666
sS'spe10_3_0_3_Da12a_Fa12a_2'
p612
F0.29706933333333335
sS'80_1_0____12'
p613
F0.10794766666666666
sS'100_1_0___Fa18a_8'
p614
F0.10002119999999999
sS'spe10_3_0_3_Da12a_Fa12a_1'
p615
F0.65060099999999998
sS'100_3_0_3_Da4a__4'
p616
F0.14980599999999999
sS'spe10_3_0_3_Da12a_Fa12a_4'
p617
F0.16250183333333337
sS'30_3_0_3_Da2a__1'
p618
F0.015331949999999999
sS'30_1_0_3___8'
p619
F0.0019363816666666666
sS'80_1_0_3___2'
p620
F0.090017016666666672
sS'30_3_0_3_Da2a__2'
p621
F0.0077836566666666662
sS'80_1_0_3___4'
p622
F0.048575649999999998
sS'30_3_0_3_Da2a__4'
p623
F0.0044927966666666666
sS'80_8_0_3__Fa12a_12'
p624
F0.27583549999999996
sS'80_1_0_3___8'
p625
F0.029996483333333334
sS'30_3_0_3_Da2a__8'
p626
F0.0034313216666666661
sS'30_1_0_3___2'
p627
F0.0048435916666666667
sS'100_3_0_3_Da12a_Fa6a_12'
p628
F0.1487063333333333
sS'30_1_0_3___4'
p629
F0.0028139199999999997
sS'100_8_0_3_Da4a_Fa18a_2'
p630
F1.9653933333333333
sS'spe10_3_0__Da12a__2'
p631
F0.75961800000000002
sS'80_8_0__Da12a_Fa12a_1'
p632
F2.393426666666667
sS'spe10_3_0__Da12a__1'
p633
F0.64912083333333337
sS'spe10_3_0__Da12a__4'
p634
F0.39744733333333332
sS'spe10_3_0___Fa36a_12'
p635
F0.13158999999999998
sS'spe10_3_0__Da12a__8'
p636
F0.21863833333333335
sS'30_8_0__Da8a__12'
p637
F0.012952149999999997
sS'30_8_0_3_Da2a_Fa36a_12'
p638
F0.018178266666666668
sS'spe10_3_0__Da8a_Fa18a_4'
p639
F0.42026950000000007
sS'100_3_0__Da12a_Fa12a_4'
p640
F0.36426016666666666
sS'spe10_3_0__Da8a_Fa18a_2'
p641
F0.76058616666666667
sS'100_3_0_3_Da2a_Fa36a_8'
p642
F0.096116949999999993
sS'spe10_3_0__Da8a_Fa18a_1'
p643
F0.65154016666666659
sS'100_3_0_3_Da2a_Fa36a_4'
p644
F0.15488733333333332
sS'100_8_0__Da12a_Fa6a_8'
p645
F1.0105016666666666
sS'100_3_0_3_Da2a_Fa36a_2'
p646
F0.29062733333333335
sS'spe10_3_0__Da8a_Fa18a_8'
p647
F0.26774116666666664
sS'100_3_0_3_Da2a_Fa36a_1'
p648
F0.62995100000000004
sS'30_3_0_3__Fa6a_8'
p649
F0.0043859249999999997
sS'100_1_0__Da2a_Fa24a_12'
p650
F0.083181366666666659
sS'100_8_0__Da2a_Fa24a_8'
p651
F0.75390883333333336
sS'30_1_0_3_Da12a_Fa6a_12'
p652
F0.0030777383333333332
sS'30_3_0_3__Fa6a_2'
p653
F0.0077654916666666665
sS'30_3_0_3__Fa6a_1'
p654
F0.015344516666666664
sS'100_8_0__Da2a_Fa24a_2'
p655
F2.4640133333333334
sS'30_3_0_3__Fa6a_4'
p656
F0.0047731283333333338
sS'30_3_0__Da2a__4'
p657
F0.0097382666666666669
sS'100_3_0_3_Da12a__12'
p658
F0.092092083333333338
sS'30_3_0__Da2a__2'
p659
F0.017156950000000001
sS'30_3_0__Da2a__1'
p660
F0.015494616666666667
sS'80_8_0__Da12a_Fa12a_8'
p661
F0.44966533333333331
sS'30_3_0__Da2a__8'
p662
F0.0057875016666666668
sS'80_3_0_3_Da8a_Fa36a_12'
p663
F0.048935283333333336
sS'spe10_3_0_3_Da2a_Fa18a_8'
p664
F0.10183266666666667
sS'100_1_0___Fa24a_12'
p665
F0.077712016666666661
sS'spe10_3_0_3_Da2a_Fa18a_1'
p666
F0.64806883333333332
sS'spe10_3_0_3_Da2a_Fa18a_2'
p667
F0.3087611666666667
sS'spe10_3_0_3_Da2a_Fa18a_4'
p668
F0.16431100000000001
sS'100_3_0_3_Da4a_Fa24a_1'
p669
F0.62871383333333342
sS'100_1_0__Da8a_Fa36a_1'
p670
F0.29816500000000001
sS'80_8_0_3__Fa36a_4'
p671
F0.5244888333333334
sS'80_8_0_3__Fa36a_1'
p672
F2.3966833333333333
sS'80_8_0_3__Fa36a_2'
p673
F1.0142149999999999
sS'80_8_0_3__Fa36a_8'
p674
F0.30273449999999996
sS'spe10_3_0_3_Da2a__12'
p675
F0.085133116666666661
sS'100_8_0__Da8a_Fa6a_12'
p676
F1.0201666666666664
sS'80_3_0__Da8a_Fa12a_12'
p677
F0.079115583333333336
sS'80_1_0_3__Fa36a_8'
p678
F0.029780716666666665
sS'100_8_0_3_Da2a_Fa36a_1'
p679
F4.7763800000000005
sS'80_1_0_3__Fa36a_4'
p680
F0.048160266666666667
sS'80_1_0_3__Fa36a_2'
p681
F0.089004483333333329
sS'80_1_0_3__Fa36a_1'
p682
F0.15090000000000001
sS'30_3_0__Da8a_Fa36a_1'
p683
F0.0153612
sS'80_3_0__Da2a_Fa18a_8'
p684
F0.091577633333333339
sS'30_3_0__Da8a_Fa36a_2'
p685
F0.012929566666666668
sS'30_3_0__Da8a_Fa36a_4'
p686
F0.0069539966666666668
sS'80_3_0__Da2a_Fa18a_2'
p687
F0.29312233333333332
sS'30_3_0__Da8a_Fa36a_8'
p688
F0.00406442
sS'80_3_0__Da2a_Fa18a_1'
p689
F0.308869
sS'80_3_0__Da2a_Fa18a_4'
p690
F0.15585849999999998
sS'30_1_0___Fa36a_12'
p691
F0.002223835
sS'80_1_0_3_Da2a_Fa18a_8'
p692
F0.029582533333333331
sS'80_8_0__Da8a__1'
p693
F2.3984999999999999
sS'100_3_0_3__Fa24a_8'
p694
F0.096132216666666673
sS'100_1_0__Da8a_Fa24a_12'
p695
F0.071094450000000003
sS'80_1_0_3__Fa6a_2'
p696
F0.089010033333333335
sS'100_3_0_3__Fa24a_1'
p697
F0.63233166666666674
sS'100_8_0__Da4a_Fa12a_1'
p698
F4.7654933333333327
sS'spe10_3_0__Da8a__12'
p699
F0.16406366666666666
sS'100_8_0__Da4a_Fa12a_2'
p700
F2.553091666666667
sS'30_3_0__Da8a_Fa12a_12'
p701
F0.003998221666666666
sS'100_3_0__Da12a_Fa12a_2'
p702
F0.66674333333333335
sS'100_8_0__Da4a_Fa12a_8'
p703
F0.85300566666666666
sS'80_8_0_3__Fa12a_1'
p704
F2.3961116666666666
sS'100_8_0_3_Da12a__8'
p705
F0.64558983333333331
sS'100_8_0__Da2a_Fa24a_4'
p706
F1.2972283333333332
sS'30_3_0_3_Da12a_Fa36a_4'
p707
F0.0045586583333333324
sS'30_3_0_3_Da12a_Fa36a_2'
p708
F0.0073072749999999994
sS'30_3_0_3_Da12a_Fa36a_1'
p709
F0.015317983333333333
sS'100_8_0_3_Da4a_Fa12a_2'
p710
F1.9713149999999999
sS'100_3_0_3_Da2a_Fa18a_4'
p711
F0.15556033333333333
sS'100_1_0__Da8a__2'
p712
F0.34014799999999995
sS'100_3_0_3_Da2a_Fa18a_2'
p713
F0.29630916666666662
sS'30_3_0_3_Da12a_Fa36a_8'
p714
F0.0043699899999999998
sS'spe10_3_0__Da4a_Fa24a_1'
p715
F0.65340466666666663
sS'spe10_3_0__Da4a_Fa24a_2'
p716
F0.68116583333333336
sS'spe10_3_0__Da4a_Fa24a_4'
p717
F0.36985616666666665
sS'spe10_3_0__Da4a_Fa24a_8'
p718
F0.21083533333333335
sS'100_8_0__Da2a_Fa24a_1'
p719
F4.7619150000000001
sS'100_1_0___Fa6a_12'
p720
F0.1872628333333333
sS'100_3_0_3_Da4a_Fa24a_4'
p721
F0.15089283333333334
sS'30_3_0__Da8a_Fa6a_8'
p722
F0.0063727800000000006
sS'30_3_0__Da8a_Fa6a_4'
p723
F0.0076491049999999998
sS'30_3_0__Da8a_Fa6a_1'
p724
F0.015251683333333335
sS'30_3_0__Da8a_Fa6a_2'
p725
F0.01330655
sS'30_8_0__Da2a_Fa36a_8'
p726
F0.017389983333333334
sS'100_3_0_3_Da2a_Fa24a_1'
p727
F0.62799133333333335
sS'80_3_0_3_Da4a_Fa36a_12'
p728
F0.043712033333333337
sS'100_8_0_3_Da12a__12'
p729
F0.54282550000000007
sS'100_3_0_3_Da8a_Fa36a_12'
p730
F0.089968583333333338
sS'80_8_0_3_Da8a_Fa18a_12'
p731
F0.2899235
sS'80_3_0__Da12a_Fa24a_1'
p732
F0.31241650000000004
sS'80_1_0_3_Da2a_Fa18a_4'
p733
F0.046915649999999996
sS'80_3_0__Da12a_Fa24a_2'
p734
F0.30771516666666671
sS'80_8_0___Fa12a_1'
p735
F2.3979233333333334
sS'80_3_0__Da12a_Fa24a_4'
p736
F0.16433866666666666
sS'30_3_0___Fa24a_12'
p737
F0.0036440899999999996
sS'80_8_0___Fa12a_2'
p738
F1.2757849999999999
sS'100_1_0__Da4a_Fa12a_12'
p739
F0.10793883333333333
sS'80_3_0__Da12a_Fa24a_8'
p740
F0.095827549999999997
sS'80_8_0___Fa12a_8'
p741
F0.39798699999999992
sS'80_8_0__Da12a_Fa36a_12'
p742
F0.2905875
sS'100_3_0_3_Da4a_Fa36a_2'
p743
F0.28158250000000001
sS'80_1_0_3_Da2a_Fa18a_1'
p744
F0.15267316666666667
sS'100_8_0_3__Fa24a_1'
p745
F4.7704500000000003
sS'30_3_0_3_Da12a_Fa6a_4'
p746
F0.0047254583333333341
sS'30_3_0_3_Da12a_Fa6a_2'
p747
F0.0073271199999999995
sS'30_3_0_3_Da12a_Fa6a_1'
p748
F0.015322899999999999
sS'80_1_0_3__Fa6a_12'
p749
F0.044894633333333329
sS'100_3_0_3_Da4a_Fa36a_4'
p750
F0.15123433333333333
sS'30_3_0_3_Da12a_Fa6a_8'
p751
F0.0047873916666666674
sS'100_3_0__Da4a_Fa18a_8'
p752
F0.21258116666666668
sS'30_8_0__Da12a_Fa6a_12'
p753
F0.027434933333333331
sS'100_3_0__Da2a_Fa6a_2'
p754
F0.6937996666666667
sS'100_3_0__Da2a_Fa6a_4'
p755
F0.41115866666666667
sS'100_3_0_3___12'
p756
F0.083809166666666657
sS'spe10_3_0_3_Da12a_Fa24a_8'
p757
F0.10144266666666667
sS'30_3_0__Da12a_Fa6a_1'
p758
F0.015310499999999999
sS'100_3_0__Da4a_Fa18a_1'
p759
F0.62968049999999998
sS'100_3_0__Da4a_Fa18a_2'
p760
F0.67207900000000009
sS'30_3_0__Da12a_Fa6a_2'
p761
F0.015187483333333335
sS'100_3_0__Da4a_Fa18a_4'
p762
F0.35797033333333333
sS'30_3_0__Da12a_Fa6a_4'
p763
F0.01007535
sS'spe10_3_0_3_Da12a_Fa24a_1'
p764
F0.65081533333333341
sS'100_8_0__Da2a_Fa24a_12'
p765
F0.59495983333333335
sS'80_8_0__Da8a_Fa24a_12'
p766
F0.26932266666666665
sS'spe10_3_0_3_Da12a__12'
p767
F0.090197433333333341
sS'80_3_0_3_Da8a_Fa12a_1'
p768
F0.31338333333333335
sS'30_1_0_3_Da8a_Fa36a_8'
p769
F0.0025610049999999999
sS'30_1_0_3_Da8a_Fa36a_4'
p770
F0.0028341849999999999
sS'100_3_0_3_Da2a_Fa24a_12'
p771
F0.084181066666666679
sS'30_1_0_3_Da8a_Fa36a_1'
p772
F0.0078130233333333337
sS'30_1_0_3_Da8a_Fa36a_2'
p773
F0.0045805999999999998
sS'30_8_0__Da4a_Fa24a_8'
p774
F0.01791365
sS'30_8_0__Da4a_Fa24a_1'
p775
F0.12290050000000001
sS'30_8_0__Da4a_Fa24a_2'
p776
F0.058413999999999994
sS'30_8_0__Da4a_Fa24a_4'
p777
F0.030606866666666663
sS'30_8_0__Da12a_Fa18a_8'
p778
F0.018630216666666668
sS'100_3_0_3_Da8a_Fa18a_8'
p779
F0.098205466666666671
sS'100_8_0_3_Da8a_Fa12a_8'
p780
F0.65068483333333327
sS'100_3_0_3_Da8a_Fa18a_4'
p781
F0.15264033333333335
sS'30_8_0__Da12a_Fa18a_1'
p782
F0.12253333333333334
sS'30_8_0__Da12a_Fa18a_2'
p783
F0.058579466666666663
sS'100_8_0_3_Da8a_Fa12a_4'
p784
F1.0439433333333332
sS'30_8_0__Da12a_Fa18a_4'
p785
F0.03094888333333333
sS'100_3_0_3_Da8a_Fa18a_1'
p786
F0.63084133333333325
sS'100_3_0_3_Da8a_Fa18a_2'
p787
F0.28403583333333332
sS'80_1_0___Fa12a_4'
p788
F0.083266933333333334
sS'80_1_0___Fa12a_1'
p789
F0.15186316666666669
sS'80_1_0___Fa12a_2'
p790
F0.15672016666666669
sS'100_3_0_3_Da4a_Fa6a_12'
p791
F0.14508016666666668
sS'80_8_0__Da8a_Fa36a_8'
p792
F0.33927133333333331
sS'80_1_0___Fa12a_8'
p793
F0.053528416666666662
sS'80_8_0__Da2a_Fa12a_12'
p794
F0.345696
sS'30_1_0___Fa6a_12'
p795
F0.0044598749999999994
sS'80_1_0_3_Da2a_Fa18a_2'
p796
F0.088826699999999995
sS'100_3_0__Da12a_Fa24a_12'
p797
F0.16335999999999998
sS'100_1_0_3_Da2a_Fa36a_8'
p798
F0.056429616666666661
sS'80_8_0__Da8a_Fa36a_2'
p799
F1.13629
sS'80_8_0__Da8a_Fa36a_1'
p800
F2.3957850000000001
sS'100_1_0_3_Da2a_Fa24a_4'
p801
F0.092916066666666672
sS'80_8_0____12'
p802
F0.31296266666666667
sS'30_1_0__Da8a_Fa6a_12'
p803
F0.0039575350000000007
sS'80_3_0__Da4a_Fa6a_12'
p804
F0.15850666666666666
sS'100_1_0__Da2a__4'
p805
F0.26307900000000001
sS'80_1_0_3_Da4a_Fa6a_12'
p806
F0.042977216666666658
sS'80_8_0__Da2a__4'
p807
F0.64239316666666668
sS'80_8_0__Da2a__1'
p808
F2.4021733333333333
sS'80_8_0__Da2a__2'
p809
F1.2351949999999998
sS'30_8_0_3__Fa36a_12'
p810
F0.013809550000000002
sS'80_8_0__Da2a__8'
p811
F0.35902683333333335
sS'100_1_0__Da2a__8'
p812
F0.16131066666666666
sS'80_8_0_3__Fa6a_8'
p813
F0.4342085
sS'100_1_0__Da2a__2'
p814
F0.47700150000000002
sS'100_1_0__Da2a__1'
p815
F0.29660750000000002
sS'80_3_0__Da4a_Fa12a_12'
p816
F0.090850700000000006
sS'30_3_0_3__Fa12a_4'
p817
F0.0044420049999999997
sS'100_3_0____2'
p818
F0.96041033333333337
sS'30_3_0_3__Fa12a_1'
p819
F0.015375333333333333
sS'30_3_0_3__Fa12a_2'
p820
F0.0077611316666666664
sS'100_8_0_3_Da4a__12'
p821
F0.47449183333333328
sS'30_3_0_3__Fa12a_8'
p822
F0.0032786800000000004
sS'30_3_0__Da12a_Fa6a_8'
p823
F0.0069456716666666659
sS'30_1_0_3_Da8a_Fa18a_8'
p824
F0.0025734683333333334
sS'30_1_0_3_Da8a_Fa18a_4'
p825
F0.0028278266666666666
sS'30_1_0_3_Da8a_Fa18a_1'
p826
F0.007836556666666666
sS'100_8_0_3_Da2a_Fa18a_12'
p827
F0.48043600000000003
sS'80_1_0__Da8a_Fa24a_12'
p828
F0.03462225
sS'80_1_0__Da8a_Fa24a_8'
p829
F0.043255316666666675
sS'30_8_0__Da8a_Fa18a_12'
p830
F0.013603233333333334
sS'80_1_0__Da8a_Fa24a_4'
p831
F0.075004150000000006
sS'80_3_0__Da12a_Fa36a_12'
p832
F0.073977849999999998
sS'80_1_0__Da8a_Fa24a_1'
p833
F0.15093116666666667
sS'100_8_0__Da2a_Fa6a_4'
p834
F1.3931483333333334
sS'80_1_0__Da8a_Fa24a_2'
p835
F0.14184450000000001
sS'100_8_0__Da4a_Fa6a_8'
p836
F1.0598266666666667
sS'spe10_3_0_3_Da8a_Fa6a_12'
p837
F0.19140199999999999
sS'100_8_0__Da4a_Fa6a_4'
p838
F1.5804183333333333
sS'100_8_0__Da4a_Fa6a_2'
p839
F2.6399583333333339
sS'100_8_0__Da4a_Fa6a_1'
p840
F4.7751833333333327
sS'100_8_0___Fa12a_12'
p841
F0.70731299999999997
sS'100_3_0__Da8a_Fa36a_1'
p842
F0.63274350000000001
sS'100_3_0__Da8a_Fa36a_2'
p843
F0.56954783333333336
sS'100_3_0__Da8a_Fa36a_4'
p844
F0.28666366666666665
sS'80_8_0_3_Da8a_Fa36a_8'
p845
F0.33575399999999994
sS'100_3_0__Da8a_Fa36a_8'
p846
F0.162274
sS'80_8_0_3_Da8a_Fa36a_4'
p847
F0.53618733333333324
sS'100_8_0_3_Da4a_Fa6a_2'
p848
F1.9812000000000001
sS'80_8_0_3_Da8a_Fa36a_1'
p849
F2.4194249999999999
sS'80_8_0_3_Da8a_Fa36a_2'
p850
F1.0145333333333333
sS'80_1_0__Da4a_Fa24a_8'
p851
F0.051842933333333334
sS'100_1_0_3_Da12a_Fa24a_4'
p852
F0.088234183333333327
sS'100_1_0_3_Da12a_Fa24a_2'
p853
F0.16512583333333333
sS'100_1_0_3_Da12a_Fa24a_1'
p854
F0.29787699999999995
sS'80_1_0__Da4a_Fa24a_1'
p855
F0.15233283333333333
sS'80_1_0__Da4a_Fa24a_2'
p856
F0.16447999999999999
sS'80_1_0__Da4a_Fa24a_4'
p857
F0.088069033333333338
sS'100_1_0_3_Da12a_Fa24a_8'
p858
F0.057148483333333333
sS'80_3_0___Fa36a_8'
p859
F0.086256650000000004
sS'30_8_0__Da2a__12'
p860
F0.014043666666666664
sS'80_3_0___Fa36a_1'
p861
F0.31027083333333333
sS'80_3_0___Fa36a_2'
p862
F0.29481266666666667
sS'80_3_0___Fa36a_4'
p863
F0.15483966666666665
sS'100_8_0__Da8a_Fa18a_12'
p864
F0.54930349999999994
sS'80_8_0__Da12a_Fa6a_12'
p865
F0.55049616666666656
sS'80_3_0__Da12a_Fa18a_12'
p866
F0.08629633333333335
sS'100_1_0_3_Da8a_Fa12a_2'
p867
F0.16743966666666665
sS'30_3_0__Da4a_Fa36a_4'
p868
F0.0080926233333333333
sS'100_3_0_3_Da4a_Fa36a_1'
p869
F0.62879750000000001
sS'100_8_0_3__Fa36a_12'
p870
F0.45890550000000002
sS'30_3_0__Da4a_Fa36a_1'
p871
F0.015556916666666665
sS'30_3_0__Da4a_Fa36a_2'
p872
F0.014964100000000001
sS'30_8_0__Da12a_Fa24a_12'
p873
F0.014767533333333334
sS'30_3_0__Da4a_Fa36a_8'
p874
F0.0047434016666666667
sS'100_1_0_3_Da2a__12'
p875
F0.047166133333333339
sS'80_8_0__Da2a_Fa18a_12'
p876
F0.30613383333333333
sS'80_8_0__Da2a_Fa36a_8'
p877
F0.36348883333333332
sS'30_1_0_3_Da12a_Fa12a_1'
p878
F0.0078442566666666672
sS'80_8_0__Da8a_Fa24a_1'
p879
F2.3956116666666669
sS'30_8_0__Da12a__4'
p880
F0.030877749999999999
sS'30_8_0__Da12a__2'
p881
F0.059171399999999992
sS'80_1_0__Da2a__8'
p882
F0.078978983333333322
sS'30_8_0__Da12a__1'
p883
F0.12277766666666667
sS'80_8_0__Da8a_Fa24a_8'
p884
F0.3441176666666666
sS'100_1_0__Da8a__4'
p885
F0.17618583333333335
sS'80_1_0__Da2a__4'
p886
F0.12789500000000001
sS'30_1_0_3_Da2a_Fa18a_4'
p887
F0.0028224300000000003
sS'80_1_0__Da2a__2'
p888
F0.23615016666666669
sS'30_1_0_3_Da2a_Fa18a_2'
p889
F0.0048126066666666668
sS'30_8_0__Da12a__8'
p890
F0.018006000000000001
sS'80_1_0__Da2a__1'
p891
F0.15076483333333335
sS'spe10_3_0__Da12a_Fa6a_2'
p892
F0.84623433333333331
sS'80_8_0__Da12a__12'
p893
F0.27235483333333338
sS'spe10_3_0___Fa18a_12'
p894
F0.15269583333333334
sS'spe10_3_0__Da12a_Fa6a_1'
p895
F0.65455350000000001
sS'spe10_3_0__Da12a_Fa6a_4'
p896
F0.57691149999999991
sS'30_3_0__Da2a_Fa24a_4'
p897
F0.0079646133333333338
sS'spe10_3_0__Da12a_Fa6a_8'
p898
F0.33824900000000002
sS'80_1_0__Da12a_Fa6a_1'
p899
F0.15048799999999998
sS'100_1_0__Da8a__8'
p900
F0.10146881666666667
sS'80_3_0__Da8a_Fa12a_8'
p901
F0.091958749999999992
sS'80_8_0_3_Da4a_Fa36a_12'
p902
F0.24694933333333333
sS'30_8_0__Da2a__8'
p903
F0.018314833333333332
sS'80_3_0__Da8a_Fa12a_2'
p904
F0.27233583333333328
sS'30_8_0__Da2a__4'
p905
F0.032097116666666668
sS'80_3_0__Da8a_Fa12a_1'
p906
F0.31279933333333337
sS'30_8_0__Da2a__2'
p907
F0.060940233333333337
sS'80_3_0__Da8a_Fa12a_4'
p908
F0.14529633333333333
sS'30_8_0__Da2a__1'
p909
F0.12274416666666667
sS'80_8_0__Da2a_Fa36a_2'
p910
F1.1966999999999999
sS'100_3_0_3_Da4a_Fa6a_8'
p911
F0.1350905
sS'100_3_0_3_Da4a_Fa6a_4'
p912
F0.16179133333333331
sS'100_3_0_3_Da4a_Fa6a_2'
p913
F0.28894033333333335
sS'30_3_0_3_Da2a_Fa36a_12'
p914
F0.0034756799999999997
sS'30_8_0_3_Da2a_Fa36a_1'
p915
F0.12251616666666666
sS'30_8_0_3_Da2a_Fa36a_2'
p916
F0.052807483333333329
sS'30_8_0_3_Da2a_Fa36a_4'
p917
F0.028653499999999998
sS'30_3_0_3_Da12a_Fa36a_12'
p918
F0.0046466316666666672
sS'30_8_0_3_Da2a_Fa36a_8'
p919
F0.019385433333333337
sS'80_3_0_3__Fa6a_1'
p920
F0.31472349999999999
sS'spe10_3_0__Da4a_Fa12a_12'
p921
F0.1942868333333333
sS'80_3_0_3__Fa6a_4'
p922
F0.083467200000000005
sS'spe10_3_0_3_Da4a_Fa6a_4'
p923
F0.18704066666666666
sS'spe10_3_0__Da2a_Fa24a_2'
p924
F0.64301083333333331
sS'spe10_3_0__Da2a_Fa24a_1'
p925
F0.64897949999999993
sS'80_8_0_3_Da8a_Fa6a_2'
p926
F1.027085
sS'30_1_0___Fa18a_12'
p927
F0.0023812233333333332
sS'spe10_3_0_3_Da4a_Fa6a_2'
p928
F0.31093450000000006
sS'spe10_3_0__Da2a_Fa24a_4'
p929
F0.34093049999999997
sS'30_3_0__Da8a_Fa18a_4'
p930
F0.006888406666666666
sS'spe10_3_0__Da2a_Fa24a_8'
p931
F0.19172783333333332
sS'spe10_3_0_3_Da4a_Fa6a_8'
p932
F0.1852665
sS'30_3_0__Da8a_Fa18a_2'
p933
F0.01278345
sS'100_1_0__Da4a_Fa6a_4'
p934
F0.24230183333333333
sS'30_1_0____12'
p935
F0.0057713116666666666
sS'80_1_0_3_Da12a_Fa12a_12'
p936
F0.030207083333333339
sS'100_1_0__Da4a_Fa6a_1'
p937
F0.30040483333333334
sS'100_1_0__Da4a_Fa6a_2'
p938
F0.38505983333333327
sS'100_1_0_3_Da12a_Fa24a_12'
p939
F0.050281566666666673
sS'100_1_0__Da4a_Fa6a_8'
p940
F0.18342883333333329
sS'spe10_3_0___Fa12a_8'
p941
F0.20821000000000001
sS'spe10_3_0___Fa12a_1'
p942
F0.64824533333333334
sS'spe10_3_0___Fa12a_2'
p943
F0.622062
sS'spe10_3_0___Fa12a_4'
p944
F0.33259916666666667
sS'100_8_0_3_Da12a_Fa36a_8'
p945
F0.64594949999999995
sS'30_8_0_3_Da8a_Fa24a_12'
p946
F0.02844548333333333
sS'100_3_0_3_Da8a_Fa6a_2'
p947
F0.28907666666666665
sS'100_8_0_3_Da12a_Fa36a_1'
p948
F4.7857433333333335
sS'100_8_0_3_Da12a_Fa36a_2'
p949
F1.9673849999999999
sS'80_1_0___Fa6a_12'
p950
F0.08504278333333333
sS'100_8_0_3_Da12a_Fa36a_4'
p951
F1.0417666666666667
sS'30_1_0__Da2a_Fa6a_4'
p952
F0.0052923700000000002
sS'100_8_0__Da12a_Fa18a_8'
p953
F0.77049033333333339
sS'30_1_0__Da2a_Fa6a_1'
p954
F0.0078298799999999991
sS'spe10_3_0_3_Da4a_Fa24a_12'
p955
F0.09450264999999998
sS'100_8_0__Da12a_Fa18a_2'
p956
F2.4490750000000001
sS'100_8_0__Da12a_Fa18a_1'
p957
F4.7514016666666672
sS'30_1_0__Da2a_Fa6a_8'
p958
F0.0043589083333333339
sS'100_8_0__Da12a_Fa18a_4'
p959
F1.2921983333333331
sS'30_3_0_3__Fa36a_4'
p960
F0.0044417966666666668
sS'80_1_0__Da2a_Fa36a_8'
p961
F0.047549950000000001
sS'30_3_0_3__Fa36a_2'
p962
F0.0078053583333333324
sS'30_3_0_3__Fa36a_1'
p963
F0.015382933333333335
sS'80_1_0__Da2a_Fa36a_4'
p964
F0.082155266666666657
sS'80_1_0__Da2a_Fa36a_1'
p965
F0.15056966666666668
sS'80_1_0__Da2a_Fa36a_2'
p966
F0.15853983333333335
sS'30_3_0_3__Fa36a_8'
p967
F0.0030696016666666667
sS'spe10_3_0_3_Da12a_Fa6a_2'
p968
F0.30198933333333328
sS'spe10_3_0_3_Da12a_Fa6a_1'
p969
F0.64784466666666662
sS'100_3_0____4'
p970
F0.50604166666666661
sS'spe10_3_0_3_Da12a_Fa6a_4'
p971
F0.18260466666666667
sS'spe10_3_0_3_Da12a_Fa6a_8'
p972
F0.1801545
sS'30_1_0__Da12a_Fa12a_12'
p973
F0.002842205
sS'80_8_0_3_Da4a_Fa36a_4'
p974
F0.52674216666666662
sS'30_3_0__Da2a_Fa18a_2'
p975
F0.014737533333333335
sS'30_3_0__Da2a_Fa18a_1'
p976
F0.015522116666666667
sS'30_3_0__Da2a_Fa18a_4'
p977
F0.007987483333333335
sS'30_3_0__Da12a_Fa24a_2'
p978
F0.014507466666666668
sS'30_3_0__Da2a_Fa18a_8'
p979
F0.0048205949999999996
sS'30_8_0_3_Da8a_Fa36a_4'
p980
F0.031401999999999999
sS'30_8_0_3_Da8a_Fa36a_2'
p981
F0.054087950000000003
sS'30_8_0_3_Da8a_Fa36a_1'
p982
F0.12246466666666667
sS'30_8_0_3_Da8a_Fa36a_8'
p983
F0.027453733333333331
sS'80_8_0___Fa36a_12'
p984
F0.28335733333333329
sS'100_3_0_3__Fa18a_12'
p985
F0.086538133333333322
sS'30_3_0_3___4'
p986
F0.0044283316666666669
sS'100_1_0__Da8a_Fa18a_12'
p987
F0.076357183333333328
sS'100_8_0__Da4a_Fa24a_12'
p988
F0.61264566666666675
sS'100_1_0_3_Da8a_Fa36a_8'
p989
F0.056206250000000006
sS'80_8_0__Da4a_Fa6a_2'
p990
F1.3081683333333334
sS'100_1_0_3_Da8a_Fa36a_4'
p991
F0.087987366666666664
sS'100_1_0_3_Da8a_Fa36a_2'
p992
F0.168404
sS'80_8_0__Da4a_Fa6a_1'
p993
F2.4056083333333333
sS'100_1_0_3_Da8a_Fa36a_1'
p994
F0.29948566666666671
sS'spe10_3_0_3___1'
p995
F0.64772699999999994
sS'spe10_3_0_3___2'
p996
F0.32973433333333335
sS'spe10_3_0_3___4'
p997
F0.17788883333333336
sS'30_1_0_3__Fa6a_1'
p998
F0.0078350049999999991
sS'30_1_0_3__Fa6a_2'
p999
F0.0047919683333333329
sS'30_1_0_3__Fa6a_4'
p1000
F0.0029613933333333333
sS'80_1_0_3_Da12a_Fa36a_8'
p1001
F0.029295716666666666
sS'30_1_0_3_Da2a__8'
p1002
F0.0021359383333333336
sS'80_1_0__Da8a_Fa12a_8'
p1003
F0.047519399999999996
sS'100_8_0__Da8a_Fa36a_2'
p1004
F2.2561966666666664
sS'100_8_0__Da8a_Fa36a_1'
p1005
F4.7903716666666663
sS'80_1_0__Da8a_Fa12a_4'
p1006
F0.07546725
sS'30_1_0_3_Da2a__2'
p1007
F0.0048335066666666667
sS'30_1_0_3_Da2a__1'
p1008
F0.0078838083333333323
sS'80_8_0__Da4a_Fa6a_4'
p1009
F0.82894749999999995
sS'80_1_0_3_Da12a_Fa36a_4'
p1010
F0.044759849999999997
sS'80_1_0__Da8a_Fa12a_1'
p1011
F0.15059750000000002
sS'80_1_0__Da8a_Fa12a_2'
p1012
F0.14250466666666667
sS'30_1_0_3_Da2a__4'
p1013
F0.0027976349999999997
sS'80_3_0_3_Da4a_Fa24a_8'
p1014
F0.04882156666666667
sS'30_1_0__Da4a_Fa24a_4'
p1015
F0.0046719783333333334
sS'80_8_0__Da4a_Fa6a_8'
p1016
F0.52953016666666664
sS'30_1_0__Da4a_Fa24a_1'
p1017
F0.0078430050000000019
sS'30_1_0__Da4a_Fa24a_2'
p1018
F0.0083513683333333328
sS'30_1_0__Da4a_Fa24a_8'
p1019
F0.00291837
sS'80_1_0__Da8a_Fa36a_12'
p1020
F0.033908083333333332
sS'100_8_0__Da4a_Fa18a_2'
p1021
F2.5331916666666667
sS'100_8_0__Da4a_Fa18a_1'
p1022
F4.7765333333333331
sS'30_1_0_3__Fa18a_8'
p1023
F0.001940855
sS'100_8_0__Da4a_Fa18a_4'
p1024
F1.3382783333333332
sS'30_1_0_3__Fa18a_4'
p1025
F0.0028052366666666668
sS'100_8_0__Da4a_Fa18a_8'
p1026
F0.78483216666666655
sS'30_1_0_3__Fa18a_1'
p1027
F0.0078967733333333342
sS'80_3_0_3_Da4a_Fa24a_1'
p1028
F0.31152133333333337
sS'30_1_0_3__Fa18a_2'
p1029
F0.0048297983333333338
sS'80_8_0_3___12'
p1030
F0.23261466666666666
sS'30_8_0_3_Da4a_Fa24a_8'
p1031
F0.019724866666666663
sS'80_1_0_3_Da4a_Fa18a_8'
p1032
F0.028764116666666669
sS'30_8_0_3_Da4a_Fa24a_4'
p1033
F0.029771150000000007
sS'80_1_0_3_Da4a_Fa18a_4'
p1034
F0.046017316666666669
sS'30_8_0_3_Da4a_Fa24a_1'
p1035
F0.12249983333333332
sS'30_8_0_3_Da4a_Fa24a_2'
p1036
F0.052749949999999997
sS'100_8_0__Da2a_Fa36a_4'
p1037
F1.2756666666666667
sS'80_1_0_3__Fa18a_8'
p1038
F0.029800166666666666
sS'80_1_0_3_Da12a_Fa6a_12'
p1039
F0.0447882
sS'100_8_0_3_Da8a_Fa36a_12'
p1040
F0.52055166666666663
sS'80_3_0_3_Da2a_Fa12a_8'
p1041
F0.050784916666666673
sS'80_3_0_3_Da2a_Fa12a_4'
p1042
F0.077748150000000002
sS'spe10_3_0__Da8a_Fa18a_12'
p1043
F0.22885999999999998
sS'80_3_0_3_Da2a_Fa12a_1'
p1044
F0.3121248333333333
sS'80_3_0_3_Da2a_Fa12a_2'
p1045
F0.14828083333333333
sS'100_1_0__Da8a__12'
p1046
F0.076934849999999999
sS'100_3_0__Da12a_Fa36a_4'
p1047
F0.34544216666666666
sS'80_1_0__Da4a_Fa6a_1'
p1048
F0.15099316666666665
sS'spe10_3_0_3_Da4a_Fa24a_8'
p1049
F0.10151366666666667
sS'100_3_0__Da12a_Fa36a_1'
p1050
F0.62811100000000009
sS'spe10_3_0_3_Da4a_Fa24a_4'
p1051
F0.165629
sS'spe10_3_0_3_Da4a_Fa24a_1'
p1052
F0.64721583333333321
sS'100_3_0__Da12a_Fa36a_8'
p1053
F0.19789300000000001
sS'spe10_3_0_3_Da4a_Fa24a_2'
p1054
F0.30891383333333339
sS'100_3_0__Da12a_Fa12a_1'
p1055
F0.63060183333333331
sS'80_8_0_3_Da8a_Fa6a_4'
p1056
F0.55499883333333344
sS'80_3_0__Da12a__1'
p1057
F0.31222433333333333
sS'80_3_0__Da12a__2'
p1058
F0.32040216666666671
sS'80_3_0__Da12a__4'
p1059
F0.16942400000000002
sS'30_3_0_3_Da2a_Fa18a_8'
p1060
F0.0034323199999999996
sS'80_3_0__Da12a__8'
p1061
F0.094389749999999994
sS'30_3_0_3_Da2a_Fa18a_4'
p1062
F0.0045237683333333332
sS'100_3_0__Da8a_Fa6a_1'
p1063
F0.62985733333333327
sS'30_3_0_3_Da2a_Fa18a_1'
p1064
F0.015442483333333335
sS'100_8_0_3__Fa18a_4'
p1065
F1.0354333333333332
sS'100_3_0__Da8a_Fa6a_4'
p1066
F0.35360999999999998
sS'30_3_0_3_Da2a_Fa18a_2'
p1067
F0.0077709433333333329
sS'100_3_0_3_Da2a_Fa6a_1'
p1068
F0.62879066666666661
sS'100_3_0_3_Da2a_Fa6a_2'
p1069
F0.29669433333333334
sS'100_3_0_3_Da2a_Fa6a_4'
p1070
F0.16328299999999998
sS'100_3_0_3_Da2a_Fa6a_8'
p1071
F0.13828116666666668
sS'100_1_0__Da2a_Fa6a_12'
p1072
F0.19285250000000001
sS'100_1_0___Fa18a_12'
p1073
F0.087095166666666668
sS'100_1_0__Da12a_Fa12a_12'
p1074
F0.10228533333333333
sS'spe10_3_0_3_Da12a_Fa12a_12'
p1075
F0.12511450000000002
sS'80_8_0__Da12a_Fa18a_1'
p1076
F2.3978649999999999
sS'100_3_0_3_Da4a_Fa24a_8'
p1077
F0.095555483333333316
sS'100_1_0_3_Da12a_Fa12a_12'
p1078
F0.056484650000000004
sS'100_3_0___Fa12a_12'
p1079
F0.18248
sS'100_3_0_3_Da4a_Fa24a_2'
p1080
F0.28770600000000002
sS'100_3_0__Da8a_Fa6a_12'
p1081
F0.28466883333333332
sS'80_1_0__Da4a_Fa6a_4'
p1082
F0.11830083333333331
sS'spe10_3_0__Da4a__1'
p1083
F0.64914116666666666
sS'spe10_3_0__Da8a_Fa12a_8'
p1084
F0.31036883333333337
sS'100_8_0__Da8a_Fa24a_4'
p1085
F1.1850916666666669
sS'spe10_3_0__Da4a_Fa6a_12'
p1086
F0.35096349999999998
sS'spe10_3_0__Da8a_Fa12a_1'
p1087
F0.6547360000000001
sS'spe10_3_0__Da8a_Fa12a_2'
p1088
F0.7840206666666667
sS'spe10_3_0__Da8a_Fa12a_4'
p1089
F0.44541766666666666
sS'30_8_0_3_Da8a_Fa24a_1'
p1090
F0.12272250000000001
sS'100_1_0__Da8a__1'
p1091
F0.2983648333333333
sS'80_1_0_3__Fa24a_8'
p1092
F0.029448050000000003
sS'30_1_0__Da4a_Fa12a_12'
p1093
F0.0028436083333333328
sS'100_1_0_3_Da2a__2'
p1094
F0.17683183333333333
sS'100_8_0_3_Da4a_Fa12a_8'
p1095
F0.62023733333333342
sS'80_8_0_3_Da8a_Fa12a_8'
p1096
F0.34737050000000003
sS'80_8_0_3_Da8a_Fa12a_4'
p1097
F0.54176733333333327
sS'80_8_0_3_Da8a_Fa12a_2'
p1098
F1.0151249999999998
sS'80_8_0_3_Da8a_Fa12a_1'
p1099
F2.3908516666666668
sS'spe10_3_0__Da2a__2'
p1100
F0.77280733333333329
sS'80_8_0_3_Da12a__4'
p1101
F0.54028799999999999
sS'spe10_3_0__Da2a__1'
p1102
F0.65341533333333335
sS'80_8_0_3_Da12a__1'
p1103
F2.3973966666666664
sS'100_3_0_3_Da2a_Fa18a_8'
p1104
F0.096645450000000008
sS'spe10_3_0__Da2a__4'
p1105
F0.42333466666666664
sS'80_8_0_3_Da12a__2'
p1106
F1.0104483333333334
sS'spe10_3_0__Da2a__8'
p1107
F0.24215616666666664
sS'80_8_0_3_Da12a__8'
p1108
F0.33346283333333332
sS'80_8_0_3_Da2a_Fa12a_12'
p1109
F0.28469483333333334
sS'80_8_0___Fa24a_12'
p1110
F0.29342833333333335
sS'100_8_0_3_Da4a_Fa12a_1'
p1111
F4.7635649999999998
sS'30_1_0_3_Da8a_Fa6a_1'
p1112
F0.0078330283333333337
sS'30_1_0_3_Da8a_Fa6a_2'
p1113
F0.0045701333333333337
sS'30_1_0_3_Da8a_Fa6a_4'
p1114
F0.0028224083333333334
sS'30_1_0_3_Da8a_Fa6a_8'
p1115
F0.0028450366666666668
sS'80_8_0_3_Da4a_Fa24a_8'
p1116
F0.3115883333333333
sS'30_3_0__Da8a_Fa18a_12'
p1117
F0.0035296449999999997
sS'80_1_0_3__Fa6a_8'
p1118
F0.041055283333333331
sS'80_8_0_3___1'
p1119
F2.3942983333333334
sS'80_1_0___Fa18a_4'
p1120
F0.081264449999999988
sS'80_1_0___Fa18a_2'
p1121
F0.15491733333333332
sS'80_1_0___Fa18a_1'
p1122
F0.15072483333333334
sS'80_1_0_3__Fa6a_1'
p1123
F0.15075450000000001
sS'30_3_0__Da8a_Fa18a_8'
p1124
F0.0041067983333333332
sS'100_3_0_3_Da2a_Fa18a_1'
p1125
F0.62891733333333333
sS'80_1_0_3__Fa6a_4'
p1126
F0.050309733333333329
sS'80_1_0___Fa18a_8'
p1127
F0.048484150000000004
sS'80_8_0_3_Da12a_Fa6a_4'
p1128
F0.55163683333333324
sS'80_8_0_3___4'
p1129
F0.52586183333333336
sS'100_1_0__Da2a_Fa6a_2'
p1130
F0.35174449999999996
sS'100_8_0___Fa36a_4'
p1131
F1.2826649999999999
sS'100_1_0__Da2a_Fa6a_1'
p1132
F0.29733700000000002
sS'100_1_0__Da2a_Fa6a_4'
p1133
F0.21847866666666663
sS'spe10_3_0_3_Da12a_Fa6a_12'
p1134
F0.19125883333333335
sS'100_3_0_3_Da12a_Fa36a_12'
p1135
F0.092533116666666651
sS'80_1_0_3_Da4a_Fa12a_12'
p1136
F0.026947433333333329
sS'80_1_0__Da12a_Fa12a_8'
p1137
F0.062702549999999996
sS'80_1_0__Da12a_Fa12a_4'
p1138
F0.09178639999999999
sS'80_1_0__Da12a_Fa12a_2'
p1139
F0.16560149999999998
sS'30_1_0_3_Da2a_Fa36a_12'
p1140
F0.0020959499999999996
sS'80_1_0__Da12a_Fa12a_1'
p1141
F0.15119516666666666
sS'100_1_0_3_Da12a_Fa36a_1'
p1142
F0.29878549999999998
sS'100_1_0_3_Da12a_Fa36a_2'
p1143
F0.1655823333333333
sS'100_1_0_3_Da12a_Fa36a_4'
p1144
F0.08840933333333334
sS'100_1_0_3_Da12a_Fa36a_8'
p1145
F0.056828683333333331
sS'80_3_0__Da8a_Fa24a_12'
p1146
F0.064091716666666673
sS'100_1_0__Da2a_Fa36a_12'
p1147
F0.07829001666666667
sS'30_1_0__Da4a_Fa6a_2'
p1148
F0.0088675516666666659
sS'30_1_0__Da4a_Fa6a_1'
p1149
F0.0079597433333333332
sS'30_1_0__Da4a_Fa6a_4'
p1150
F0.0057445833333333333
sS'30_3_0__Da2a__12'
p1151
F0.0046358550000000004
sS'30_1_0__Da4a_Fa6a_8'
p1152
F0.0042984983333333336
sS'30_1_0__Da4a__12'
p1153
F0.0027217600000000002
sS'spe10_3_0_3__Fa12a_12'
p1154
F0.128718
sS'80_8_0__Da4a_Fa18a_4'
p1155
F0.66261683333333332
sS'80_8_0__Da4a_Fa18a_2'
p1156
F1.2482866666666668
sS'80_8_0__Da4a_Fa18a_1'
p1157
F2.39608
sS'100_8_0___Fa12a_1'
p1158
F4.7741516666666666
sS'30_1_0_3_Da8a_Fa24a_1'
p1159
F0.0077982449999999997
sS'30_8_0__Da8a_Fa6a_12'
p1160
F0.025836683333333332
sS'80_3_0__Da8a_Fa6a_12'
p1161
F0.13938316666666667
sS'80_8_0__Da4a_Fa18a_8'
p1162
F0.38974166666666665
sS'80_8_0_3_Da4a_Fa6a_4'
p1163
F0.5491625
sS'80_8_0_3_Da4a_Fa6a_1'
p1164
F2.3997283333333335
sS'80_8_0_3_Da4a_Fa6a_2'
p1165
F1.0269483333333334
sS'100_8_0_3__Fa18a_2'
p1166
F1.9966316666666666
sS'100_8_0___Fa12a_2'
p1167
F2.5585650000000002
sS'80_8_0_3_Da4a_Fa6a_8'
p1168
F0.44507916666666664
sS'100_1_0_3_Da12a__12'
p1169
F0.050522049999999992
sS'100_3_0__Da4a__4'
p1170
F0.38458583333333335
sS'100_3_0__Da4a__2'
p1171
F0.72025966666666674
sS'100_3_0__Da4a__1'
p1172
F0.62940133333333337
sS'100_3_0__Da4a__8'
p1173
F0.21613583333333333
sS'30_3_0__Da12a_Fa24a_4'
p1174
F0.0078225133333333328
sS'80_1_0__Da12a_Fa36a_12'
p1175
F0.040660383333333334
sS'30_3_0__Da12a_Fa24a_1'
p1176
F0.015288433333333332
sS'80_3_0__Da4a_Fa18a_8'
p1177
F0.098451949999999996
sS'80_1_0_3__Fa36a_12'
p1178
F0.024962583333333333
sS'30_3_0__Da12a_Fa24a_8'
p1179
F0.0047013699999999999
sS'100_8_0___Fa12a_8'
p1180
F0.79305799999999993
sS'30_1_0_3_Da12a_Fa18a_12'
p1181
F0.0028738083333333334
sS'100_8_0_3__Fa12a_1'
p1182
F4.7629733333333339
sS'30_8_0__Da12a__12'
p1183
F0.014001466666666665
sS'80_3_0_3_Da4a_Fa24a_2'
p1184
F0.14322966666666667
sS'30_1_0_3_Da8a_Fa24a_12'
p1185
F0.0028020150000000001
sS'80_3_0_3_Da4a_Fa24a_4'
p1186
F0.076505416666666673
sS'80_3_0__Da4a_Fa36a_12'
p1187
F0.072722400000000006
sS'80_3_0__Da2a__12'
p1188
F0.089418933333333325
sS'100_3_0_3_Da4a__12'
p1189
F0.083720033333333332
sS'spe10_3_0__Da2a_Fa18a_12'
p1190
F0.16566183333333334
sS'80_8_0__Da8a_Fa24a_2'
p1191
F1.1581516666666667
sS'100_3_0_3_Da2a__4'
p1192
F0.15540183333333332
sS'80_8_0_3_Da2a_Fa24a_1'
p1193
F2.3971699999999996
sS'100_1_0__Da4a_Fa36a_12'
p1194
F0.085082433333333332
sS'100_3_0_3_Da12a_Fa36a_2'
p1195
F0.28202449999999996
sS'30_1_0__Da4a_Fa36a_2'
p1196
F0.0085192383333333333
sS'30_1_0__Da4a_Fa36a_1'
p1197
F0.0078798283333333351
sS'30_1_0__Da4a_Fa36a_4'
p1198
F0.0047396216666666666
sS'30_1_0__Da4a_Fa36a_8'
p1199
F0.0029274933333333334
sS'100_3_0_3_Da2a__1'
p1200
F0.63058683333333332
sS'100_3_0_3_Da2a__2'
p1201
F0.29727366666666671
sS'30_8_0__Da12a_Fa36a_12'
p1202
F0.014039850000000001
sS'100_1_0_3_Da2a_Fa12a_8'
p1203
F0.058475250000000006
sS'100_3_0_3_Da2a__8'
p1204
F0.09602005000000001
sS'80_3_0__Da12a_Fa12a_4'
p1205
F0.16955499999999998
sS'80_8_0__Da4a_Fa36a_2'
p1206
F1.2318850000000001
sS'30_8_0_3_Da12a_Fa12a_12'
p1207
F0.030164366666666664
sS'80_3_0__Da12a_Fa12a_1'
p1208
F0.312332
sS'80_3_0__Da12a_Fa12a_2'
p1209
F0.31210133333333334
sS'80_8_0__Da4a_Fa36a_4'
p1210
F0.6483538333333333
sS'100_1_0__Da12a_Fa6a_4'
p1211
F0.25174883333333331
sS'80_8_0__Da4a_Fa36a_8'
p1212
F0.37433233333333332
sS'80_3_0__Da12a_Fa12a_8'
p1213
F0.11724833333333334
sS'100_1_0_3_Da2a_Fa12a_4'
p1214
F0.095134499999999997
sS'100_1_0__Da12a_Fa6a_1'
p1215
F0.30031516666666669
sS'80_8_0__Da4a_Fa24a_4'
p1216
F0.65496399999999999
sS'100_8_0_3_Da4a_Fa36a_8'
p1217
F0.60266416666666667
sS'80_8_0__Da4a_Fa24a_1'
p1218
F2.3986216666666667
sS'80_8_0__Da4a_Fa24a_2'
p1219
F1.2431533333333333
sS'100_8_0_3_Da4a_Fa36a_1'
p1220
F4.763276666666667
sS'100_1_0_3_Da2a_Fa12a_2'
p1221
F0.17837600000000001
sS'100_3_0__Da12a_Fa6a_2'
p1222
F0.69194050000000018
sS'100_8_0_3_Da4a_Fa36a_2'
p1223
F1.959711666666667
sS'80_8_0__Da4a_Fa24a_8'
p1224
F0.38253683333333338
sS'80_8_0__Da4a_Fa36a_1'
p1225
F2.3921299999999999
sS'100_8_0_3_Da12a_Fa6a_12'
p1226
F0.97284899999999996
sS'30_3_0_3_Da4a_Fa6a_8'
p1227
F0.0043592149999999996
sS'100_1_0__Da12a_Fa6a_12'
p1228
F0.18174166666666669
sS'30_3_0_3_Da4a_Fa6a_4'
p1229
F0.004529445
sS'30_3_0_3_Da4a_Fa6a_2'
p1230
F0.0072897633333333335
sS'30_3_0_3_Da4a_Fa6a_1'
p1231
F0.015371999999999999
sS'100_8_0__Da12a__4'
p1232
F1.2454700000000001
sS'100_3_0_3_Da12a_Fa36a_1'
p1233
F0.6329094999999999
sS'100_1_0__Da12a_Fa6a_8'
p1234
F0.16781450000000001
sS'80_3_0__Da2a_Fa24a_1'
p1235
F0.30983183333333336
sS'100_1_0_3_Da12a_Fa6a_4'
p1236
F0.092295733333333338
sS'30_3_0_3__Fa12a_12'
p1237
F0.003356208333333333
sS'80_1_0_3_Da4a_Fa12a_8'
p1238
F0.029127483333333332
sS'100_8_0__Da8a_Fa12a_8'
p1239
F0.71310483333333341
sS'80_1_0_3_Da4a_Fa12a_1'
p1240
F0.15082583333333333
sS'80_1_0_3_Da4a_Fa12a_2'
p1241
F0.084318749999999998
sS'80_3_0__Da2a_Fa24a_12'
p1242
F0.070860233333333342
sS'80_1_0_3_Da4a_Fa12a_4'
p1243
F0.045003566666666661
sS'100_8_0__Da8a_Fa12a_2'
p1244
F2.2912433333333335
sS'80_8_0_3_Da8a__1'
p1245
F2.3892583333333333
sS'80_3_0_3_Da2a_Fa36a_4'
p1246
F0.078677533333333341
sS'80_8_0_3_Da8a__2'
p1247
F1.0179333333333334
sS'80_3_0_3_Da2a_Fa36a_2'
p1248
F0.14905550000000001
sS'80_8_0_3_Da8a__4'
p1249
F0.5359005
sS'80_3_0_3_Da2a_Fa36a_1'
p1250
F0.31171966666666667
sS'80_8_0_3_Da8a__8'
p1251
F0.33589416666666666
sS'30_8_0_3_Da8a_Fa12a_12'
p1252
F0.028637333333333334
sS'80_3_0_3_Da2a_Fa36a_8'
p1253
F0.049421616666666668
sS'100_3_0__Da2a_Fa24a_1'
p1254
F0.63437366666666672
sS'80_3_0_3__Fa18a_4'
p1255
F0.079106300000000004
sS'100_3_0__Da8a_Fa18a_8'
p1256
F0.17839416666666666
sS'80_3_0_3__Fa18a_1'
p1257
F0.31356050000000002
sS'80_3_0_3__Fa18a_2'
p1258
F0.14892899999999998
sS'30_1_0_3_Da4a_Fa6a_12'
p1259
F0.0028413916666666667
sS'100_3_0__Da8a_Fa18a_4'
p1260
F0.30458950000000001
sS'80_3_0_3__Fa18a_8'
p1261
F0.049804783333333331
sS'100_3_0__Da8a_Fa18a_1'
p1262
F0.63186066666666674
sS'100_3_0__Da8a_Fa18a_2'
p1263
F0.5780696666666667
sS'spe10_3_0__Da12a_Fa18a_12'
p1264
F0.22970433333333332
sS'100_3_0__Da12a_Fa6a_8'
p1265
F0.29884949999999999
sS'80_8_0__Da12a__4'
p1266
F0.62967533333333336
sS'30_8_0____8'
p1267
F0.020609433333333333
sS'80_8_0__Da12a__2'
p1268
F1.2058249999999999
sS'80_8_0__Da12a__1'
p1269
F2.3932216666666668
sS'30_8_0____4'
p1270
F0.035369400000000002
sS'100_1_0__Da8a_Fa24a_8'
p1271
F0.089643483333333329
sS'30_8_0____1'
p1272
F0.122762
sS'30_8_0____2'
p1273
F0.066595683333333336
sS'80_8_0__Da12a__8'
p1274
F0.35641066666666665
sS'100_1_0__Da8a_Fa6a_8'
p1275
F0.1489045
sS'30_8_0__Da8a_Fa36a_4'
p1276
F0.029044700000000003
sS'30_8_0__Da8a_Fa36a_2'
p1277
F0.055729899999999999
sS'30_3_0__Da4a_Fa12a_8'
p1278
F0.0054724250000000004
sS'80_3_0_3_Da12a_Fa18a_1'
p1279
F0.310448
sS'100_1_0__Da8a_Fa6a_1'
p1280
F0.29746633333333333
sS'100_1_0__Da8a_Fa6a_2'
p1281
F0.31897666666666663
sS'30_3_0__Da4a_Fa12a_4'
p1282
F0.0082135416666666659
sS'100_1_0__Da8a_Fa6a_4'
p1283
F0.18244533333333332
sS'30_3_0__Da4a_Fa12a_2'
p1284
F0.014934816666666665
sS'30_8_0__Da8a_Fa36a_8'
p1285
F0.016772733333333331
sS'30_8_0__Da4a_Fa6a_8'
p1286
F0.025832683333333332
sS'80_8_0___Fa12a_4'
p1287
F0.66586466666666666
sS'30_8_0__Da4a_Fa6a_1'
p1288
F0.12227983333333335
sS'30_8_0__Da4a_Fa6a_2'
p1289
F0.0593553
sS'30_8_0__Da4a_Fa6a_4'
p1290
F0.037225016666666666
sS'80_8_0_3_Da4a__1'
p1291
F2.3888866666666666
sS'spe10_3_0__Da8a_Fa24a_8'
p1292
F0.23873383333333331
sS'100_3_0__Da12a_Fa6a_1'
p1293
F0.63106450000000003
sS'spe10_3_0__Da8a_Fa24a_4'
p1294
F0.40661133333333327
sS'spe10_3_0__Da8a_Fa24a_1'
p1295
F0.65417583333333329
sS'spe10_3_0__Da8a_Fa24a_2'
p1296
F0.75403950000000008
sS'80_8_0__Da8a__12'
p1297
F0.24745366666666668
sS'80_3_0__Da2a_Fa36a_8'
p1298
F0.087293400000000007
sS'80_8_0__Da12a_Fa6a_4'
p1299
F0.8515301666666667
sS'30_1_0_3__Fa18a_12'
p1300
F0.0017983850000000002
sS'80_3_0__Da2a_Fa36a_2'
p1301
F0.29435833333333333
sS'100_3_0__Da2a_Fa24a_2'
p1302
F0.62029116666666662
sS'80_3_0__Da2a_Fa36a_1'
p1303
F0.31324850000000004
sS'80_3_0__Da2a_Fa36a_4'
p1304
F0.15520599999999998
sS'100_8_0_3_Da4a_Fa36a_4'
p1305
F1.0233516666666667
sS'80_3_0___Fa6a_8'
p1306
F0.14957466666666666
sS'80_1_0_3_Da2a_Fa24a_4'
p1307
F0.046677016666666675
sS'80_3_0_3_Da12a_Fa36a_2'
p1308
F0.14133416666666668
sS'80_1_0_3_Da2a_Fa24a_2'
p1309
F0.089412183333333339
sS'80_1_0_3_Da2a_Fa24a_1'
p1310
F0.15219166666666667
sS'80_3_0_3_Da12a_Fa36a_1'
p1311
F0.31192866666666669
sS'spe10_3_0___Fa6a_12'
p1312
F0.33544149999999995
sS'100_8_0__Da8a_Fa6a_2'
p1313
F2.3192649999999997
sS'100_8_0__Da8a_Fa6a_1'
p1314
F4.765696666666666
sS'80_3_0___Fa6a_1'
p1315
F0.31396433333333335
sS'80_3_0__Da2a_Fa24a_4'
p1316
F0.15596416666666668
sS'80_3_0___Fa6a_4'
p1317
F0.1831358333333333
sS'80_1_0_3_Da2a_Fa24a_8'
p1318
F0.029253966666666662
sS'80_8_0____8'
p1319
F0.40402916666666666
sS'80_8_0____4'
p1320
F0.70931566666666657
sS'80_8_0____2'
p1321
F1.3718616666666668
sS'80_8_0____1'
p1322
F2.3986066666666668
sS'100_1_0__Da2a_Fa36a_8'
p1323
F0.099591383333333339
sS'100_1_0__Da12a_Fa18a_1'
p1324
F0.29909666666666673
sS'100_1_0__Da12a_Fa18a_2'
p1325
F0.34977233333333335
sS'100_8_0____8'
p1326
F0.79919683333333336
sS'100_1_0__Da12a_Fa18a_4'
p1327
F0.18814716666666667
sS'100_1_0__Da12a_Fa18a_8'
p1328
F0.11264400000000001
sS'100_1_0__Da2a_Fa36a_1'
p1329
F0.29688766666666666
sS'100_1_0__Da2a_Fa36a_2'
p1330
F0.32985933333333334
sS'100_1_0__Da2a_Fa36a_4'
p1331
F0.1747195
sS'80_8_0__Da2a_Fa18a_4'
p1332
F0.65051349999999997
sS'100_8_0____4'
p1333
F1.409035
sS'100_1_0__Da8a_Fa36a_8'
p1334
F0.086843299999999998
sS'80_1_0_3_Da12a__8'
p1335
F0.02897841666666667
sS'100_8_0_3_Da2a_Fa24a_8'
p1336
F0.60615816666666678
sS'80_1_0_3_Da12a__4'
p1337
F0.044209633333333331
sS'80_1_0_3_Da12a__2'
p1338
F0.082810466666666666
sS'30_8_0_3_Da2a_Fa24a_12'
p1339
F0.018095733333333332
sS'80_1_0_3_Da12a__1'
p1340
F0.15171666666666669
sS'80_8_0_3_Da2a_Fa24a_2'
p1341
F1.0185150000000001
sS'100_3_0_3_Da12a_Fa36a_8'
p1342
F0.098856199999999991
sS'80_1_0_3_Da12a_Fa36a_12'
p1343
F0.026054116666666668
sS'100_8_0__Da2a__1'
p1344
F4.777941666666667
sS'100_1_0__Da12a_Fa36a_2'
p1345
F0.3530408333333333
sS'100_8_0__Da4a_Fa12a_12'
p1346
F0.66294616666666673
sS'100_1_0_3__Fa24a_12'
p1347
F0.047618516666666666
sS'30_1_0___Fa6a_8'
p1348
F0.0042369033333333334
sS'30_1_0___Fa6a_4'
p1349
F0.0048358616666666666
sS'30_1_0___Fa6a_2'
p1350
F0.0080550316666666653
sS'30_1_0___Fa6a_1'
p1351
F0.0077912166666666664
sS'100_8_0__Da2a__4'
p1352
F1.2728116666666667
sS'80_3_0__Da2a_Fa24a_8'
p1353
F0.088186083333333332
sS'80_8_0_3__Fa6a_12'
p1354
F0.46230850000000001
sS'100_8_0__Da4a_Fa24a_2'
p1355
F2.5052733333333332
sS'100_8_0__Da12a__2'
p1356
F2.3862666666666663
sS'30_3_0_3_Da12a_Fa18a_8'
p1357
F0.0043970683333333328
sS'80_8_0_3_Da2a_Fa12a_8'
p1358
F0.31823649999999998
sS'100_8_0__Da12a__1'
p1359
F4.7695499999999997
sS'30_3_0_3_Da12a_Fa18a_2'
p1360
F0.0073293616666666658
sS'30_3_0_3_Da12a_Fa18a_1'
p1361
F0.015520300000000001
sS'100_1_0_3_Da4a_Fa18a_8'
p1362
F0.055543149999999993
sS'30_3_0_3_Da12a_Fa18a_4'
p1363
F0.0045602716666666666
sS'spe10_3_0_3_Da4a_Fa12a_4'
p1364
F0.16646833333333333
sS'100_1_0_3_Da4a_Fa36a_8'
p1365
F0.055690833333333335
sS'spe10_3_0_3_Da4a_Fa12a_1'
p1366
F0.65157700000000007
sS'spe10_3_0_3_Da4a_Fa12a_2'
p1367
F0.30767916666666667
sS'100_1_0_3_Da4a_Fa36a_2'
p1368
F0.16670266666666667
sS'100_1_0_3_Da4a_Fa36a_1'
p1369
F0.30124983333333333
sS'spe10_3_0_3_Da4a_Fa12a_8'
p1370
F0.11962200000000001
sS'100_1_0_3_Da4a_Fa36a_4'
p1371
F0.090637016666666667
sS'100_1_0__Da4a_Fa36a_2'
p1372
F0.34769833333333339
sS'30_3_0__Da4a_Fa18a_8'
p1373
F0.0049257833333333336
sS'80_3_0_3___12'
p1374
F0.043529666666666668
sS'80_8_0_3_Da2a_Fa6a_8'
p1375
F0.44016699999999997
sS'100_8_0___Fa18a_12'
p1376
F0.61289366666666678
sS'100_1_0__Da4a_Fa36a_4'
p1377
F0.18678583333333332
sS'30_3_0__Da4a_Fa18a_1'
p1378
F0.015339116666666666
sS'80_8_0_3_Da2a_Fa6a_2'
p1379
F1.0178533333333333
sS'80_8_0_3_Da2a_Fa6a_1'
p1380
F2.3904566666666667
sS'30_3_0__Da4a_Fa18a_2'
p1381
F0.014799950000000001
sS'30_3_0__Da4a_Fa18a_4'
p1382
F0.0081235400000000003
sS'80_8_0_3_Da2a_Fa6a_4'
p1383
F0.55699899999999991
sS'100_8_0_3_Da2a_Fa24a_12'
p1384
F0.46855183333333333
sS'100_8_0__Da12a__8'
p1385
F0.70372899999999994
sS'80_8_0_3_Da8a_Fa18a_8'
p1386
F0.33385316666666665
sS'30_8_0__Da2a_Fa6a_4'
p1387
F0.033844116666666667
sS'30_8_0__Da2a_Fa6a_2'
p1388
F0.0585088
sS'80_8_0_3_Da4a__8'
p1389
F0.31100849999999997
sS'80_8_0__Da2a_Fa24a_8'
p1390
F0.37266366666666667
sS'30_8_0__Da2a_Fa6a_1'
p1391
F0.12322466666666666
sS'80_8_0_3_Da4a__4'
p1392
F0.52501466666666674
sS'80_8_0__Da2a_Fa24a_4'
p1393
F0.6406438333333333
sS'80_1_0_3__Fa24a_12'
p1394
F0.024420683333333332
sS'80_8_0__Da2a_Fa24a_2'
p1395
F1.2312466666666666
sS'30_3_0_3__Fa6a_12'
p1396
F0.0047168449999999999
sS'30_8_0__Da2a_Fa6a_8'
p1397
F0.025755183333333338
sS'80_8_0__Da2a_Fa24a_1'
p1398
F2.3887266666666669
sS'100_3_0_3_Da4a_Fa12a_2'
p1399
F0.28738100000000005
sS'30_1_0__Da8a_Fa24a_1'
p1400
F0.0078535666666666674
sS'30_1_0__Da8a_Fa24a_2'
p1401
F0.0071304300000000001
sS'100_3_0_3_Da4a_Fa12a_1'
p1402
F0.62321950000000004
sS'30_1_0__Da8a_Fa24a_4'
p1403
F0.0038671566666666664
sS'100_3_0_3_Da4a_Fa12a_4'
p1404
F0.152587
sS'30_1_0__Da8a_Fa24a_8'
p1405
F0.0024001666666666668
sS'30_3_0__Da4a_Fa12a_12'
p1406
F0.0046796633333333337
sS'100_3_0_3_Da4a_Fa12a_8'
p1407
F0.099537750000000022
sS'100_8_0_3_Da2a__2'
p1408
F2.0086916666666665
sS'100_8_0_3_Da2a__1'
p1409
F4.79047
sS'100_8_0_3_Da2a__4'
p1410
F1.0336333333333334
sS'100_3_0__Da4a_Fa12a_12'
p1411
F0.18946750000000001
sS'30_8_0_3_Da2a_Fa12a_12'
p1412
F0.019271650000000001
sS'30_8_0___Fa12a_4'
p1413
F0.030159116666666669
sS'100_3_0_3_Da8a_Fa24a_12'
p1414
F0.090070799999999993
sS'30_8_0__Da8a__4'
p1415
F0.029480316666666669
sS'100_3_0_3_Da12a_Fa36a_4'
p1416
F0.14967433333333333
sS'80_3_0____8'
p1417
F0.156865
sS'100_1_0__Da12a__2'
p1418
F0.37840983333333328
sS'30_8_0__Da8a__1'
p1419
F0.12226116666666666
sS'30_8_0__Da8a__2'
p1420
F0.057310483333333329
sS'100_1_0__Da12a__1'
p1421
F0.29568533333333336
sS'80_3_0____2'
p1422
F0.46838433333333335
sS'spe10_3_0_3__Fa18a_12'
p1423
F0.10214000000000001
sS'80_3_0____1'
p1424
F0.31195349999999999
sS'30_8_0__Da8a__8'
p1425
F0.016919516666666665
sS'30_3_0_3___12'
p1426
F0.002878516666666667
sS'80_3_0____4'
p1427
F0.2524318333333333
sS'80_3_0__Da2a_Fa12a_8'
p1428
F0.10267183333333334
sS'100_1_0_3__Fa36a_4'
p1429
F0.094119099999999997
sS'30_1_0_3_Da4a_Fa18a_12'
p1430
F0.0020435216666666663
sS'100_1_0_3__Fa36a_2'
p1431
F0.17734816666666667
sS'100_3_0__Da4a_Fa12a_8'
p1432
F0.2384246666666667
sS'100_1_0__Da4a_Fa24a_12'
p1433
F0.08850015
sS'100_3_0_3___2'
p1434
F0.29762450000000001
sS'80_3_0__Da2a_Fa12a_1'
p1435
F0.31098500000000001
sS'80_3_0__Da2a_Fa12a_2'
p1436
F0.29632849999999999
sS'100_3_0_3___1'
p1437
F0.63233933333333325
sS'80_3_0__Da2a_Fa12a_4'
p1438
F0.158971
sS'100_1_0_3__Fa36a_8'
p1439
F0.057131750000000009
sS'100_3_0__Da4a_Fa12a_1'
p1440
F0.6340015
sS'80_8_0_3__Fa18a_8'
p1441
F0.30810950000000004
sS'100_1_0_3_Da2a_Fa24a_8'
p1442
F0.057058083333333343
sS'80_8_0_3__Fa18a_4'
p1443
F0.52843533333333337
sS'80_3_0__Da2a_Fa36a_12'
p1444
F0.06700603333333334
sS'30_3_0__Da12a__1'
p1445
F0.015294983333333333
sS'80_8_0_3__Fa18a_1'
p1446
F2.3908916666666666
sS'100_1_0_3_Da2a_Fa24a_2'
p1447
F0.17731966666666665
sS'100_1_0_3_Da2a_Fa24a_1'
p1448
F0.30087683333333332
sS'80_8_0_3__Fa18a_2'
p1449
F1.0168200000000001
sS'80_8_0__Da2a_Fa6a_4'
p1450
F0.70090149999999996
sS'80_8_0__Da2a_Fa6a_1'
p1451
F2.4004250000000003
sS'80_8_0__Da2a_Fa6a_2'
p1452
F1.2879933333333333
sS'80_8_0__Da2a_Fa6a_8'
p1453
F0.53171883333333336
sS'80_8_0__Da8a_Fa12a_4'
p1454
F0.6057555
sS'80_8_0__Da8a_Fa12a_1'
p1455
F2.3895300000000002
sS'100_8_0__Da2a_Fa12a_12'
p1456
F0.70181833333333332
sS'80_8_0__Da8a_Fa12a_2'
p1457
F1.1600833333333334
sS'80_8_0__Da8a_Fa12a_8'
p1458
F0.36001649999999996
sS'100_3_0_3__Fa6a_12'
p1459
F0.14741933333333335
sS'30_3_0__Da2a_Fa12a_12'
p1460
F0.0046053766666666668
sS'30_1_0__Da12a_Fa18a_2'
p1461
F0.0083598600000000019
sS'30_1_0__Da12a_Fa18a_1'
p1462
F0.0077617283333333321
sS'100_3_0_3_Da8a_Fa12a_8'
p1463
F0.10192916666666667
sS'30_1_0__Da12a_Fa18a_4'
p1464
F0.004575595
sS'80_8_0__Da8a_Fa36a_12'
p1465
F0.26475516666666671
sS'100_3_0_3_Da8a_Fa12a_4'
p1466
F0.152419
sS'30_1_0__Da12a_Fa18a_8'
p1467
F0.0029228933333333338
sS'100_3_0_3_Da8a_Fa12a_2'
p1468
F0.28670916666666674
sS'100_3_0_3_Da8a_Fa12a_1'
p1469
F0.63358483333333337
sS'30_8_0_3_Da4a_Fa12a_8'
p1470
F0.020021183333333335
sS'100_3_0_3_Da12a_Fa18a_8'
p1471
F0.10089333333333333
sS'100_1_0___Fa24a_2'
p1472
F0.32073116666666668
sS'100_1_0___Fa24a_4'
p1473
F0.16886666666666664
sS'100_3_0__Da8a_Fa12a_12'
p1474
F0.16619116666666667
sS'100_3_0_3_Da12a_Fa18a_2'
p1475
F0.28468849999999996
sS'30_8_0_3_Da4a_Fa12a_1'
p1476
F0.12243083333333334
sS'30_8_0_3_Da4a_Fa12a_2'
p1477
F0.053527766666666671
sS'100_3_0_3_Da12a_Fa18a_1'
p1478
F0.63370766666666667
sS'30_8_0_3_Da4a_Fa12a_4'
p1479
F0.029512266666666665
sS'100_3_0_3_Da12a_Fa18a_4'
p1480
F0.1519335
sS'30_1_0_3__Fa24a_12'
p1481
F0.0018012466666666668
sS'100_3_0__Da2a_Fa6a_8'
p1482
F0.32319416666666667
sS'30_1_0__Da8a__12'
p1483
F0.0021529916666666667
sS'30_3_0__Da4a_Fa24a_8'
p1484
F0.0048021833333333338
sS'spe10_3_0_3_Da12a_Fa24a_4'
p1485
F0.15945549999999997
sS'spe10_3_0__Da2a_Fa12a_2'
p1486
F0.64808183333333325
sS'100_1_0__Da8a_Fa12a_2'
p1487
F0.3063926666666667
sS'spe10_3_0__Da2a_Fa12a_1'
p1488
F0.64849500000000004
sS'30_3_0__Da4a_Fa24a_2'
p1489
F0.014812816666666666
sS'30_3_0__Da4a_Fa24a_1'
p1490
F0.01542405
sS'100_3_0__Da2a_Fa24a_4'
p1491
F0.33161049999999997
sS'spe10_3_0__Da2a_Fa12a_8'
p1492
F0.22538133333333332
sS'spe10_3_0_3_Da12a_Fa24a_2'
p1493
F0.30004633333333336
sS'30_1_0_3__Fa12a_8'
p1494
F0.0020044699999999999
sS'30_1_0_3__Fa12a_4'
p1495
F0.0027756149999999999
sS'30_1_0_3__Fa12a_2'
p1496
F0.0048369166666666673
sS'30_1_0_3__Fa12a_1'
p1497
F0.0078550633333333338
sS'100_1_0__Da8a_Fa12a_8'
p1498
F0.10059466666666667
sS'80_1_0_3_Da2a_Fa6a_12'
p1499
F0.044833883333333331
sS'80_8_0__Da8a_Fa18a_12'
p1500
F0.27696483333333333
sS'80_8_0_3_Da2a_Fa12a_2'
p1501
F1.0155516666666664
sS'spe10_3_0__Da4a__12'
p1502
F0.16482450000000001
sS'80_1_0_3_Da2a_Fa24a_12'
p1503
F0.024564983333333332
sS'30_1_0__Da2a_Fa24a_12'
p1504
F0.0023923166666666665
sS'spe10_3_0_3_Da8a_Fa36a_12'
p1505
F0.088848283333333333
sS'100_8_0__Da8a_Fa24a_12'
p1506
F0.53507116666666665
sS'80_8_0_3_Da8a_Fa36a_12'
p1507
F0.28675216666666664
sS'100_1_0__Da8a_Fa24a_1'
p1508
F0.29730850000000003
sS'80_3_0____12'
p1509
F0.12928949999999997
sS'100_1_0__Da8a_Fa24a_2'
p1510
F0.29429050000000007
sS'30_8_0_3_Da2a_Fa18a_12'
p1511
F0.018181649999999997
sS'80_1_0__Da12a_Fa6a_12'
p1512
F0.085990899999999995
sS'100_1_0__Da8a_Fa24a_4'
p1513
F0.15429066666666666
sS'80_1_0__Da12a_Fa18a_12'
p1514
F0.047731849999999999
sS'100_1_0_3__Fa12a_8'
p1515
F0.05912721666666667
sS'100_1_0_3__Fa12a_4'
p1516
F0.097281866666666661
sS'100_8_0___Fa12a_4'
p1517
F1.3323283333333333
sS'100_8_0_3_Da8a_Fa12a_2'
p1518
F1.9773583333333333
sS'100_1_0_3__Fa12a_1'
p1519
F0.29824933333333331
sS'100_1_0_3__Fa12a_2'
p1520
F0.17776150000000002
sS'80_8_0_3__Fa36a_12'
p1521
F0.23539350000000001
sS'80_1_0_3_Da2a__2'
p1522
F0.090360733333333332
sS'80_1_0_3_Da2a__1'
p1523
F0.15328366666666668
sS'100_3_0_3_Da12a__1'
p1524
F0.63455116666666667
sS'80_1_0_3_Da2a__4'
p1525
F0.047690166666666665
sS'80_1_0_3_Da2a__8'
p1526
F0.0295739
sS'100_3_0_3_Da12a__8'
p1527
F0.099790050000000005
sS'30_1_0_3___12'
p1528
F0.0017719349999999999
sS'100_8_0_3_Da8a_Fa12a_1'
p1529
F4.7857849999999997
sS'30_8_0_3_Da2a__2'
p1530
F0.052749966666666669
sS'30_8_0_3_Da2a__1'
p1531
F0.12282883333333335
sS'30_8_0_3_Da2a__4'
p1532
F0.028695249999999995
sS'30_8_0_3_Da2a__8'
p1533
F0.01925325
sS'100_1_0_3_Da4a_Fa36a_12'
p1534
F0.046738166666666664
sS'100_1_0__Da2a_Fa18a_12'
p1535
F0.090570150000000002
sS'spe10_3_0_3_Da4a_Fa12a_12'
p1536
F0.12549083333333333
sS'80_3_0_3_Da4a_Fa36a_4'
p1537
F0.076079133333333326
sS'30_1_0__Da12a_Fa36a_2'
p1538
F0.0084612666666666666
sS'30_1_0__Da12a_Fa36a_1'
p1539
F0.0078537633333333346
sS'80_3_0_3_Da4a_Fa36a_1'
p1540
F0.3138185
sS'80_3_0_3_Da4a_Fa36a_2'
p1541
F0.14291483333333332
sS'30_1_0__Da12a_Fa36a_4'
p1542
F0.0045974649999999994
sS'100_3_0___Fa36a_1'
p1543
F0.63286883333333332
sS'100_3_0___Fa36a_2'
p1544
F0.61943916666666665
sS'30_1_0__Da12a_Fa36a_8'
p1545
F0.0028288183333333335
sS'80_1_0___Fa12a_12'
p1546
F0.048840849999999998
sS'100_1_0_3_Da8a_Fa18a_12'
p1547
F0.049799566666666663
sS'100_3_0_3__Fa24a_12'
p1548
F0.084509700000000007
sS'30_8_0__Da8a_Fa36a_1'
p1549
F0.12220416666666666
sS'30_8_0__Da2a_Fa18a_12'
p1550
F0.014602466666666666
sS'80_3_0__Da12a_Fa6a_12'
p1551
F0.15442033333333335
sS'100_8_0__Da4a__12'
p1552
F0.55836416666666666
sS'80_8_0__Da4a_Fa12a_2'
p1553
F1.2669433333333335
sS'80_8_0__Da4a_Fa12a_4'
p1554
F0.67721900000000002
sS'80_8_0__Da4a_Fa12a_8'
p1555
F0.44013283333333325
sS'100_1_0__Da12a_Fa36a_12'
p1556
F0.085289666666666666
sS'100_3_0__Da12a_Fa24a_8'
p1557
F0.20272366666666666
sS'100_3_0_3_Da8a_Fa24a_8'
p1558
F0.097912233333333334
sS'100_3_0_3_Da8a_Fa24a_4'
p1559
F0.15275983333333334
sS'100_3_0_3_Da8a_Fa24a_2'
p1560
F0.28766366666666665
sS'100_3_0_3_Da8a_Fa24a_1'
p1561
F0.62673033333333328
sS'30_3_0__Da4a_Fa6a_12'
p1562
F0.0074758450000000009
sS'100_3_0_3__Fa6a_8'
p1563
F0.13579566666666665
sS'30_3_0_3_Da8a_Fa18a_12'
p1564
F0.0045999616666666668
sS'100_3_0_3__Fa6a_2'
p1565
F0.29553866666666667
sS'100_3_0_3__Fa6a_1'
p1566
F0.63494983333333332
sS'30_1_0__Da2a_Fa12a_12'
p1567
F0.0028479516666666664
sS'100_3_0_3__Fa6a_4'
p1568
F0.16452483333333334
sS'spe10_3_0_3_Da8a_Fa24a_8'
p1569
F0.10047216666666668
sS'30_1_0__Da4a__8'
p1570
F0.0033261716666666669
sS'spe10_3_0_3_Da8a_Fa24a_1'
p1571
F0.65211916666666669
sS'30_1_0__Da4a__2'
p1572
F0.0095164900000000007
sS'30_1_0__Da4a__1'
p1573
F0.0078287983333333328
sS'spe10_3_0_3_Da8a_Fa24a_2'
p1574
F0.3015471666666667
sS'spe10_3_0_3_Da8a_Fa24a_4'
p1575
F0.16098433333333334
sS'30_1_0__Da4a__4'
p1576
F0.0053733883333333338
sS'80_1_0_3_Da4a_Fa36a_2'
p1577
F0.084692566666666677
sS'100_8_0__Da12a_Fa12a_12'
p1578
F0.63022366666666663
sS'80_3_0___Fa12a_12'
p1579
F0.087881899999999999
sS'80_8_0__Da2a_Fa6a_12'
p1580
F0.57581450000000001
sS'30_1_0_3_Da2a_Fa12a_8'
p1581
F0.0021461666666666664
sS'30_1_0_3_Da2a_Fa12a_4'
p1582
F0.002829205
sS'30_1_0_3_Da2a_Fa12a_1'
p1583
F0.0078682566666666669
sS'30_8_0_3_Da12a_Fa36a_4'
p1584
F0.032489366666666658
sS'30_1_0_3_Da2a_Fa12a_2'
p1585
F0.0048419783333333334
sS'30_1_0__Da2a_Fa24a_4'
p1586
F0.0045195900000000004
sS'30_8_0__Da4a_Fa36a_12'
p1587
F0.013816249999999997
sS'100_3_0__Da12a__1'
p1588
F0.6298813333333334
sS'30_8_0__Da2a_Fa6a_12'
p1589
F0.027708833333333332
sS'100_3_0__Da12a__2'
p1590
F0.65586700000000009
sS'100_1_0_3_Da4a_Fa24a_12'
p1591
F0.047023866666666664
sS'100_8_0__Da12a_Fa24a_8'
p1592
F0.74874200000000002
sS'100_3_0__Da12a__4'
p1593
F0.34758516666666667
sS'100_8_0__Da12a_Fa24a_2'
p1594
F2.4409033333333334
sS'100_1_0_3_Da12a_Fa18a_12'
p1595
F0.051109216666666672
sS'100_3_0____12'
p1596
F0.25798633333333337
sS'100_8_0_3_Da12a__4'
p1597
F1.0437083333333332
sS'30_1_0__Da2a_Fa36a_8'
p1598
F0.0028716216666666672
sS'100_8_0___Fa24a_8'
p1599
F0.75521583333333331
sS'30_1_0__Da2a_Fa36a_1'
p1600
F0.0078496133333333332
sS'30_1_0__Da2a_Fa36a_2'
p1601
F0.0083238433333333323
sS'30_1_0__Da2a_Fa36a_4'
p1602
F0.0046258050000000002
sS'100_8_0___Fa24a_2'
p1603
F2.5268299999999999
sS'100_8_0__Da8a__12'
p1604
F0.49114016666666666
sS'80_1_0_3_Da12a_Fa12a_2'
p1605
F0.08268996666666667
sS'80_8_0_3_Da12a_Fa24a_4'
p1606
F0.53945050000000005
sS'80_8_0_3_Da12a_Fa24a_2'
p1607
F1.0069883333333334
sS'100_8_0__Da12a_Fa12a_8'
p1608
F0.90189533333333338
sS'80_8_0_3_Da12a_Fa24a_1'
p1609
F2.3894850000000001
sS'100_8_0__Da12a_Fa12a_4'
p1610
F1.3116183333333331
sS'100_8_0__Da12a_Fa12a_1'
p1611
F4.7504516666666659
sS'80_8_0_3_Da12a_Fa24a_8'
p1612
F0.33639000000000002
sS'100_8_0__Da12a_Fa12a_2'
p1613
F2.4668516666666669
sS'80_8_0__Da4a_Fa18a_12'
p1614
F0.33003450000000001
sS'100_3_0_3_Da8a_Fa18a_12'
p1615
F0.091475483333333329
sS'80_3_0_3_Da12a__12'
p1616
F0.047923116666666675
sS'80_1_0_3_Da12a_Fa12a_4'
p1617
F0.044810049999999997
sS'80_3_0_3_Da2a_Fa18a_12'
p1618
F0.044848599999999995
sS'30_8_0_3_Da12a__12'
p1619
F0.030001216666666674
sS'30_8_0_3__Fa24a_8'
p1620
F0.016809533333333331
sS'30_8_0_3__Fa24a_1'
p1621
F0.12250916666666667
sS'30_8_0_3__Fa24a_2'
p1622
F0.052843983333333337
sS'30_8_0_3__Fa24a_4'
p1623
F0.027868583333333332
sS'spe10_3_0__Da12a_Fa12a_1'
p1624
F0.64789816666666666
sS'30_3_0_3_Da4a_Fa12a_12'
p1625
F0.0035243799999999993
sS'30_1_0_3_Da12a_Fa36a_1'
p1626
F0.0079630433333333344
sS'30_1_0_3_Da12a_Fa36a_2'
p1627
F0.0044894616666666665
sS'30_1_0_3_Da12a_Fa36a_4'
p1628
F0.0028322833333333333
sS'30_3_0_3_Da8a_Fa18a_8'
p1629
F0.0042786450000000002
sS'30_1_0_3_Da12a_Fa36a_8'
p1630
F0.0027377566666666672
sS'80_3_0_3_Da4a_Fa12a_12'
p1631
F0.050766683333333333
sS'30_3_0_3_Da8a_Fa18a_4'
p1632
F0.0046572633333333332
sS'80_8_0_3_Da2a_Fa12a_1'
p1633
F2.39168
sS'30_3_0_3_Da8a_Fa18a_2'
p1634
F0.0074786699999999998
sS'30_3_0_3_Da8a_Fa18a_1'
p1635
F0.01525985
sS'30_8_0_3_Da4a_Fa24a_12'
p1636
F0.018400016666666668
sS'100_1_0_3_Da8a_Fa36a_12'
p1637
F0.048672099999999996
sS'100_3_0_3_Da12a__2'
p1638
F0.2840941666666667
sS'30_8_0__Da4a_Fa18a_12'
p1639
F0.0153163
sS'80_8_0__Da12a_Fa18a_4'
p1640
F0.6553768333333333
sS'spe10_3_0__Da12a_Fa36a_12'
p1641
F0.17940816666666667
sS'80_8_0__Da12a_Fa18a_8'
p1642
F0.38787900000000003
sS'100_3_0__Da2a_Fa18a_12'
p1643
F0.16469866666666666
sS'80_3_0_3_Da8a_Fa12a_2'
p1644
F0.14466799999999999
sS'30_1_0__Da2a__12'
p1645
F0.0035206333333333336
sS'80_3_0_3_Da8a_Fa12a_4'
p1646
F0.077496383333333321
sS'80_8_0_3_Da12a_Fa6a_12'
p1647
F0.51704749999999999
sS'80_3_0_3_Da8a_Fa12a_8'
p1648
F0.054041166666666668
sS'100_3_0_3_Da12a__4'
p1649
F0.15339816666666667
sS'80_8_0_3__Fa18a_12'
p1650
F0.24651966666666666
sS'80_3_0_3_Da12a_Fa36a_4'
p1651
F0.077676966666666666
sS'100_1_0_3_Da12a_Fa18a_4'
p1652
F0.08822223333333333
sS'spe10_3_0__Da2a__12'
p1653
F0.18867766666666666
sS'100_8_0__Da8a_Fa6a_8'
p1654
F0.94629216666666671
sS'100_1_0_3_Da12a_Fa18a_1'
p1655
F0.29845966666666662
sS'80_3_0_3_Da8a_Fa12a_12'
p1656
F0.054946583333333333
sS'80_8_0_3_Da12a_Fa12a_12'
p1657
F0.3305116666666667
sS'100_1_0_3_Da12a_Fa18a_8'
p1658
F0.056901583333333339
sS'100_8_0__Da4a__2'
p1659
F2.4743499999999998
sS'30_3_0_3_Da12a_Fa18a_12'
p1660
F0.0047236116666666663
sS'100_3_0__Da12a_Fa18a_4'
p1661
F0.35473483333333333
sS'30_3_0_3_Da8a_Fa6a_8'
p1662
F0.0047419383333333334
sS'100_3_0__Da12a_Fa18a_2'
p1663
F0.65306583333333335
sS'100_1_0_3_Da2a_Fa6a_12'
p1664
F0.086209383333333334
sS'100_3_0__Da12a_Fa18a_1'
p1665
F0.63130766666666671
sS'30_3_0_3_Da8a_Fa6a_2'
p1666
F0.0073889983333333331
sS'30_3_0_3_Da8a_Fa6a_1'
p1667
F0.01544035
sS'100_8_0_3_Da4a_Fa6a_8'
p1668
F0.85664200000000001
sS'100_3_0__Da12a_Fa18a_8'
p1669
F0.21037483333333329
sS'30_3_0_3_Da8a_Fa6a_4'
p1670
F0.0047600033333333328
sS'80_8_0__Da12a_Fa24a_12'
p1671
F0.30143266666666668
sS'spe10_3_0_3_Da2a_Fa24a_8'
p1672
F0.099172733333333332
sS'30_1_0_3_Da2a_Fa24a_8'
p1673
F0.0021419616666666667
sS'30_1_0_3_Da2a_Fa24a_4'
p1674
F0.0028573833333333334
sS'spe10_3_0_3_Da2a_Fa24a_2'
p1675
F0.30926366666666666
sS'spe10_3_0_3_Da2a_Fa24a_1'
p1676
F0.65071299999999999
sS'30_1_0_3_Da2a_Fa24a_1'
p1677
F0.0078959116666666666
sS'30_1_0_3_Da2a_Fa24a_2'
p1678
F0.0048035550000000002
sS'spe10_3_0_3_Da2a_Fa24a_4'
p1679
F0.16440516666666669
sS'30_3_0_3___8'
p1680
F0.0030755700000000001
sS'30_3_0__Da2a_Fa12a_8'
p1681
F0.005205548333333334
sS'spe10_3_0__Da4a_Fa18a_12'
p1682
F0.19168283333333333
sS'100_1_0_3_Da12a_Fa36a_12'
p1683
F0.050405116666666666
sS'30_3_0__Da2a_Fa12a_4'
p1684
F0.0080923033333333335
sS'30_3_0_3___1'
p1685
F0.015356833333333333
sS'30_1_0_3__Fa6a_12'
p1686
F0.0028398033333333333
sS'30_3_0__Da2a_Fa12a_1'
p1687
F0.01541415
sS'30_3_0__Da2a_Fa12a_2'
p1688
F0.014820249999999998
sS'30_1_0___Fa18a_2'
p1689
F0.0077743249999999986
sS'30_1_0___Fa18a_1'
p1690
F0.0078787533333333336
sS'30_1_0___Fa18a_4'
p1691
F0.0042567583333333334
sS'30_1_0_3_Da12a_Fa12a_12'
p1692
F0.0028469499999999996
sS'30_1_0___Fa18a_8'
p1693
F0.0027080033333333332
sS'30_8_0_3__Fa12a_12'
p1694
F0.016324266666666667
sS'80_8_0_3_Da4a_Fa12a_12'
p1695
F0.28943066666666667
sS'30_3_0__Da8a__8'
p1696
F0.004323171666666667
sS'30_3_0__Da8a__4'
p1697
F0.0073874766666666668
sS'30_3_0__Da8a__1'
p1698
F0.01560335
sS'30_3_0__Da8a__2'
p1699
F0.013875116666666666
sS'80_1_0__Da4a__12'
p1700
F0.049963900000000006
sS'80_8_0_3_Da2a__8'
p1701
F0.31193216666666668
sS'100_3_0_3_Da2a_Fa36a_12'
p1702
F0.083907966666666667
sS'80_8_0_3_Da2a__2'
p1703
F1.0257966666666667
sS'80_8_0_3_Da2a__1'
p1704
F2.3977233333333334
sS'80_8_0_3_Da2a__4'
p1705
F0.5342015
sS'30_8_0_3_Da8a_Fa6a_1'
p1706
F0.12204
sS'30_8_0_3_Da8a_Fa6a_2'
p1707
F0.054260549999999998
sS'30_8_0_3_Da8a_Fa6a_4'
p1708
F0.031895716666666664
sS'100_8_0___Fa36a_12'
p1709
F0.58360283333333329
sS'30_8_0_3_Da8a_Fa6a_8'
p1710
F0.031242016666666667
sS'100_8_0_3_Da8a_Fa36a_2'
p1711
F1.9759283333333333
sS'100_3_0_3_Da8a__8'
p1712
F0.097184783333333344
sS'30_3_0_3__Fa18a_4'
p1713
F0.004479345
sS'30_3_0_3__Fa18a_2'
p1714
F0.0078326683333333324
sS'30_3_0_3__Fa18a_1'
p1715
F0.015468283333333332
sS'100_3_0_3_Da8a__2'
p1716
F0.28802949999999999
sS'100_3_0_3_Da8a__1'
p1717
F0.62951266666666661
sS'100_3_0_3_Da8a__4'
p1718
F0.15179000000000001
sS'30_3_0_3__Fa18a_8'
p1719
F0.0031217999999999997
sS'100_1_0__Da12a_Fa24a_8'
p1720
F0.10891600000000001
sS'spe10_3_0__Da12a_Fa6a_12'
p1721
F0.35548883333333331
sS'100_1_0__Da12a_Fa24a_2'
p1722
F0.34975383333333337
sS'100_1_0__Da12a_Fa24a_1'
p1723
F0.29818233333333333
sS'100_1_0__Da12a_Fa24a_4'
p1724
F0.18801383333333335
sS'30_1_0__Da2a_Fa24a_8'
p1725
F0.00285389
sS'80_8_0__Da2a__12'
p1726
F0.27339233333333329
sS'80_8_0_3_Da2a_Fa24a_8'
p1727
F0.30974066666666666
sS'30_3_0_3__Fa18a_12'
p1728
F0.0030553783333333328
sS'30_1_0__Da8a_Fa6a_8'
p1729
F0.0037046300000000004
sS'80_8_0_3_Da2a_Fa24a_4'
p1730
F0.53168266666666664
sS'80_3_0_3_Da12a_Fa12a_12'
p1731
F0.054763250000000006
sS'30_1_0__Da8a_Fa6a_4'
p1732
F0.0043903866666666668
sS'30_1_0__Da8a_Fa6a_2'
p1733
F0.0075293549999999989
sS'30_1_0__Da8a_Fa6a_1'
p1734
F0.0079409716666666661
sS'100_3_0___Fa12a_2'
p1735
F0.66478383333333335
sS'30_1_0_3_Da4a_Fa12a_12'
p1736
F0.0021257133333333332
sS'100_3_0___Fa12a_1'
p1737
F0.63207933333333333
sS'100_3_0___Fa12a_4'
p1738
F0.34282366666666664
sS'100_8_0____2'
p1739
F2.7314600000000002
sS'100_8_0__Da4a_Fa24a_1'
p1740
F4.7717400000000003
sS'100_3_0___Fa12a_8'
p1741
F0.21371416666666665
sS'100_8_0__Da4a_Fa24a_4'
p1742
F1.3171516666666667
sS'100_8_0____1'
p1743
F4.7795699999999997
sS'100_1_0_3_Da2a_Fa12a_12'
p1744
F0.054675583333333333
sS'30_1_0__Da12a__4'
p1745
F0.0048272549999999999
sS'30_1_0__Da12a__2'
p1746
F0.0088618150000000003
sS'30_1_0__Da12a__1'
p1747
F0.0078943133333333349
sS'80_8_0_3_Da8a_Fa18a_4'
p1748
F0.53780316666666672
sS'30_3_0_3_Da2a_Fa24a_12'
p1749
F0.003498201666666667
sS'80_8_0_3_Da8a_Fa18a_1'
p1750
F2.3956466666666669
sS'100_8_0_3_Da4a_Fa6a_1'
p1751
F4.7678633333333336
sS'30_1_0__Da12a__8'
p1752
F0.0029262716666666661
sS'100_1_0__Da8a_Fa12a_4'
p1753
F0.16238533333333335
sS'30_8_0_3_Da12a_Fa24a_2'
p1754
F0.053951283333333329
sS'30_8_0_3_Da12a_Fa24a_1'
p1755
F0.12245299999999999
sS'100_1_0__Da8a_Fa12a_1'
p1756
F0.29926066666666667
sS'30_3_0_3_Da2a_Fa24a_8'
p1757
F0.0034119700000000003
sS'30_8_0_3_Da12a_Fa24a_4'
p1758
F0.032291583333333339
sS'80_1_0__Da4a_Fa12a_12'
p1759
F0.050786333333333329
sS'30_3_0_3_Da2a_Fa24a_4'
p1760
F0.0045198199999999999
sS'30_8_0_3_Da12a_Fa24a_8'
p1761
F0.028860766666666666
sS'30_3_0_3_Da2a_Fa24a_2'
p1762
F0.0078522333333333333
sS'30_3_0_3_Da2a_Fa24a_1'
p1763
F0.015305283333333334
sS'30_8_0__Da4a_Fa12a_1'
p1764
F0.12269183333333333
sS'30_8_0__Da4a_Fa12a_2'
p1765
F0.058610916666666658
sS'30_8_0__Da4a_Fa12a_4'
p1766
F0.031095766666666667
sS'30_8_0__Da4a_Fa12a_8'
p1767
F0.020002900000000001
sS'100_3_0__Da2a_Fa6a_12'
p1768
F0.33720100000000003
sS'100_3_0_3_Da12a_Fa24a_8'
p1769
F0.099592050000000001
sS'80_1_0_3_Da4a_Fa36a_8'
p1770
F0.028771816666666668
sS'30_8_0_3_Da12a_Fa18a_12'
p1771
F0.030099349999999997
sS'80_1_0_3_Da4a_Fa36a_1'
p1772
F0.15181116666666666
sS'80_1_0_3_Da4a_Fa36a_4'
p1773
F0.045432016666666665
sS'80_8_0_3_Da12a_Fa36a_1'
p1774
F2.3887633333333333
sS'80_1_0_3_Da12a_Fa12a_8'
p1775
F0.030330583333333331
sS'30_8_0__Da8a_Fa6a_8'
p1776
F0.02418066666666667
sS'100_8_0_3__Fa36a_8'
p1777
F0.59430499999999997
sS'30_8_0__Da8a_Fa6a_4'
p1778
F0.029856400000000002
sS'100_8_0_3__Fa36a_4'
p1779
F1.0221416666666665
sS'80_1_0_3_Da12a_Fa12a_1'
p1780
F0.1507155
sS'100_8_0_3__Fa36a_1'
p1781
F4.789673333333333
sS'30_8_0__Da8a_Fa6a_1'
p1782
F0.12213316666666667
sS'30_8_0__Da8a_Fa6a_2'
p1783
F0.055268433333333332
sS'100_8_0_3__Fa36a_2'
p1784
F1.9763583333333334
sS'spe10_3_0__Da12a_Fa12a_2'
p1785
F0.79688233333333336
sS'80_3_0_3_Da4a__4'
p1786
F0.075871166666666656
sS'30_3_0___Fa6a_12'
p1787
F0.0075579416666666675
sS'80_3_0_3_Da4a__2'
p1788
F0.14405916666666668
sS'30_3_0_3_Da2a_Fa12a_12'
p1789
F0.0036298100000000002
sS'spe10_3_0__Da12a_Fa12a_4'
p1790
F0.45468016666666666
sS'80_3_0_3_Da4a__1'
p1791
F0.31165833333333332
sS'spe10_3_0__Da12a_Fa12a_8'
p1792
F0.31288366666666662
sS'80_3_0_3_Da4a__8'
p1793
F0.049392183333333339
sS'80_8_0_3_Da12a_Fa36a_4'
p1794
F0.53938733333333333
sS'100_3_0__Da12a_Fa6a_12'
p1795
F0.31570766666666666
sS'80_8_0__Da8a_Fa6a_8'
p1796
F0.48137399999999997
sS'30_3_0___Fa36a_8'
p1797
F0.0045450066666666662
sS'80_8_0__Da8a_Fa6a_4'
p1798
F0.62172716666666672
sS'80_8_0__Da8a_Fa6a_2'
p1799
F1.1699300000000001
sS'80_8_0__Da8a_Fa6a_1'
p1800
F2.3942916666666667
sS'30_1_0__Da4a_Fa6a_12'
p1801
F0.0045487849999999996
sS'80_8_0__Da4a__2'
p1802
F1.2333333333333332
sS'100_8_0__Da8a_Fa36a_12'
p1803
F0.52826733333333331
sS'100_8_0__Da12a_Fa36a_12'
p1804
F0.57884783333333345
sS'30_8_0__Da12a_Fa18a_12'
p1805
F0.016203299999999997
sS'30_3_0___Fa18a_4'
p1806
F0.0077493149999999997
sS'100_8_0__Da4a_Fa36a_8'
p1807
F0.75605466666666665
sS'30_3_0___Fa18a_1'
p1808
F0.01539195
sS'30_3_0___Fa18a_2'
p1809
F0.014468583333333333
sS'30_1_0_3_Da2a_Fa24a_12'
p1810
F0.0021044333333333338
sS'30_3_0___Fa18a_8'
p1811
F0.0045957016666666661
sS'80_8_0___Fa6a_12'
p1812
F0.57081900000000008
sS'80_8_0__Da8a__4'
p1813
F0.57789699999999999
sS'100_1_0_3_Da2a_Fa24a_12'
p1814
F0.046978949999999998
sS'80_8_0__Da4a__4'
p1815
F0.64440900000000001
sS'30_3_0_3_Da4a_Fa12a_1'
p1816
F0.015418816666666668
sS'100_8_0__Da4a_Fa36a_2'
p1817
F2.4809900000000003
sS'100_8_0__Da4a_Fa36a_1'
p1818
F4.7663016666666662
sS'30_3_0_3_Da4a_Fa12a_2'
p1819
F0.00736792
sS'100_3_0_3_Da4a_Fa12a_12'
p1820
F0.097350733333333328
sS'30_3_0_3_Da4a_Fa12a_4'
p1821
F0.0043035516666666655
sS'100_8_0__Da4a_Fa36a_4'
p1822
F1.3007183333333332
sS'30_3_0_3_Da4a_Fa12a_8'
p1823
F0.0033712466666666672
sS'100_1_0_3_Da12a_Fa6a_1'
p1824
F0.29904883333333337
sS'80_1_0__Da4a__8'
p1825
F0.063906716666666655
sS'spe10_3_0_3_Da12a_Fa18a_12'
p1826
F0.10617566666666665
sS'80_1_0__Da4a__1'
p1827
F0.15260516666666665
sS'80_1_0__Da4a__2'
p1828
F0.19757433333333332
sS'80_1_0__Da4a__4'
p1829
F0.10823049999999999
sS'80_1_0_3_Da4a_Fa18a_12'
p1830
F0.025135133333333334
sS'100_8_0__Da2a_Fa6a_12'
p1831
F1.1328216666666666
sS'80_3_0_3_Da4a_Fa18a_8'
p1832
F0.048925400000000008
sS'80_3_0__Da12a_Fa18a_8'
p1833
F0.099084850000000002
sS'100_1_0_3_Da4a_Fa18a_1'
p1834
F0.29892633333333335
sS'80_1_0___Fa24a_8'
p1835
F0.047046066666666664
sS'100_1_0_3_Da4a_Fa18a_4'
p1836
F0.088420049999999986
sS'80_3_0__Da12a_Fa18a_2'
p1837
F0.30891383333333328
sS'80_1_0___Fa24a_4'
p1838
F0.081893633333333327
sS'80_3_0_3_Da4a_Fa18a_2'
p1839
F0.14304066666666665
sS'80_3_0__Da12a_Fa18a_1'
p1840
F0.31185200000000002
sS'80_1_0___Fa24a_1'
p1841
F0.15504733333333331
sS'80_3_0__Da12a_Fa18a_4'
p1842
F0.16711166666666666
sS'80_1_0___Fa24a_2'
p1843
F0.15425449999999999
sS'80_1_0__Da2a_Fa12a_12'
p1844
F0.051025399999999999
sS'100_1_0___Fa12a_12'
p1845
F0.10517399999999999
sS'30_3_0__Da4a_Fa12a_1'
p1846
F0.015493916666666668
sS'30_3_0_3_Da8a_Fa24a_12'
p1847
F0.0046004033333333335
sS'100_1_0__Da4a__4'
p1848
F0.23233499999999999
sS'100_1_0__Da4a_Fa12a_1'
p1849
F0.29617316666666671
sS'100_1_0__Da4a_Fa12a_2'
p1850
F0.35520683333333336
sS'100_1_0__Da4a_Fa12a_4'
p1851
F0.19418133333333332
sS'100_1_0__Da4a__1'
p1852
F0.29495016666666668
sS'100_1_0__Da4a__2'
p1853
F0.42472466666666664
sS'80_1_0_3_Da8a_Fa6a_12'
p1854
F0.043787450000000006
sS'100_1_0__Da4a__8'
p1855
F0.13450383333333332
sS'100_3_0_3__Fa18a_4'
p1856
F0.15545966666666666
sS'100_3_0_3__Fa18a_1'
p1857
F0.63320133333333328
sS'100_3_0_3__Fa18a_2'
p1858
F0.2972291666666666
sS'100_3_0_3__Fa18a_8'
p1859
F0.09790136666666667
sS'30_1_0_3_Da8a_Fa12a_12'
p1860
F0.0027741883333333335
sS'80_8_0_3_Da8a__12'
p1861
F0.28559449999999997
sS'100_3_0__Da12a_Fa36a_2'
p1862
F0.64709466666666671
sS'80_1_0_3__Fa12a_12'
p1863
F0.028090333333333339
sS'30_8_0_3_Da4a_Fa18a_8'
p1864
F0.019767699999999999
sS'100_3_0_3_Da12a_Fa24a_12'
p1865
F0.093071783333333338
sS'80_3_0__Da8a_Fa36a_12'
p1866
F0.061217516666666666
sS'30_8_0_3_Da4a_Fa18a_4'
p1867
F0.029500233333333334
sS'30_8_0_3_Da4a_Fa18a_2'
p1868
F0.052972266666666663
sS'100_3_0_3_Da12a_Fa12a_1'
p1869
F0.62949466666666665
sS'100_3_0_3_Da12a_Fa12a_2'
p1870
F0.28223349999999997
sS'30_8_0_3_Da4a_Fa18a_1'
p1871
F0.122762
sS'100_3_0___Fa6a_12'
p1872
F0.32935916666666665
sS'30_3_0__Da12a_Fa18a_12'
p1873
F0.0043088099999999997
sS'30_8_0_3_Da4a_Fa6a_12'
p1874
F0.028583916666666667
sS'spe10_3_0_3__Fa24a_1'
p1875
F0.65580666666666665
sS'100_1_0_3_Da4a_Fa18a_2'
p1876
F0.169713
sS'30_3_0__Da8a_Fa24a_4'
p1877
F0.0068975833333333328
sS'spe10_3_0_3__Fa24a_2'
p1878
F0.30393600000000004
sS'30_3_0__Da8a_Fa24a_2'
p1879
F0.012790183333333335
sS'spe10_3_0_3__Fa24a_4'
p1880
F0.1625075
sS'80_1_0___Fa6a_2'
p1881
F0.16397683333333332
sS'30_3_0__Da8a_Fa24a_1'
p1882
F0.015332466666666664
sS'80_1_0____4'
p1883
F0.18103566666666668
sS'spe10_3_0_3__Fa24a_8'
p1884
F0.096170099999999994
sS'80_1_0___Fa6a_8'
p1885
F0.081631316666666662
sS'80_1_0____1'
p1886
F0.15170799999999998
sS'30_3_0__Da8a_Fa24a_8'
p1887
F0.0040856800000000004
sS'80_3_0_3__Fa6a_8'
p1888
F0.069753616666666671
sS'80_1_0__Da12a__4'
p1889
F0.097632816666666664
sS'80_1_0__Da12a__2'
p1890
F0.18305433333333335
sS'80_1_0__Da12a__1'
p1891
F0.15193100000000001
sS'80_1_0__Da12a__8'
p1892
F0.056062333333333332
sS'100_1_0__Da12a_Fa12a_2'
p1893
F0.34690316666666671
sS'30_1_0___Fa24a_1'
p1894
F0.0078619066666666664
sS'30_1_0___Fa24a_2'
p1895
F0.0078075083333333335
sS'100_1_0__Da12a_Fa12a_1'
p1896
F0.29823850000000002
sS'30_1_0___Fa24a_4'
p1897
F0.0042554016666666661
sS'80_1_0__Da8a_Fa18a_12'
p1898
F0.036721900000000002
sS'100_8_0_3_Da2a_Fa12a_12'
p1899
F0.54791983333333338
sS'30_1_0___Fa24a_8'
p1900
F0.0026703199999999999
sS'100_1_0__Da12a_Fa12a_8'
p1901
F0.13334283333333333
sS'30_3_0_3_Da8a_Fa6a_12'
p1902
F0.0049937250000000001
sS'80_3_0_3_Da12a_Fa18a_4'
p1903
F0.076295699999999994
sS'30_3_0__Da2a_Fa36a_4'
p1904
F0.0080510500000000006
sS'80_3_0_3_Da12a_Fa18a_2'
p1905
F0.14115949999999999
sS'30_3_0__Da2a_Fa36a_2'
p1906
F0.01485155
sS'30_3_0__Da2a_Fa36a_1'
p1907
F0.015412416666666666
sS'80_3_0_3_Da4a_Fa18a_1'
p1908
F0.3122665
sS'80_3_0_3__Fa36a_12'
p1909
F0.043283800000000004
sS'30_3_0__Da8a_Fa6a_12'
p1910
F0.0067095233333333342
sS'30_3_0_3_Da8a__12'
p1911
F0.0045638349999999996
sS'80_3_0_3_Da12a_Fa18a_8'
p1912
F0.051511016666666666
sS'30_3_0__Da2a_Fa36a_8'
p1913
F0.0047241183333333334
sS'spe10_3_0__Da4a_Fa18a_2'
p1914
F0.68987716666666665
sS'80_1_0___Fa36a_4'
p1915
F0.081900949999999986
sS'spe10_3_0__Da4a_Fa18a_1'
p1916
F0.6497343333333333
sS'80_1_0___Fa36a_2'
p1917
F0.15433316666666669
sS'spe10_3_0__Da4a_Fa18a_4'
p1918
F0.37808799999999998
sS'80_1_0___Fa36a_1'
p1919
F0.15012300000000001
sS'80_3_0_3_Da4a_Fa18a_4'
p1920
F0.076102933333333331
sS'spe10_3_0__Da4a_Fa18a_8'
p1921
F0.22165166666666669
sS'30_8_0__Da8a_Fa12a_12'
p1922
F0.015036016666666666
sS'80_1_0___Fa36a_8'
p1923
F0.046514899999999998
sS'30_1_0_3_Da12a_Fa6a_4'
p1924
F0.0028639316666666669
sS'30_1_0_3_Da12a_Fa6a_1'
p1925
F0.00780564
sS'30_1_0_3_Da12a_Fa6a_2'
p1926
F0.0044367883333333328
sS'30_1_0_3_Da12a_Fa6a_8'
p1927
F0.0029581950000000003
sS'spe10_3_0_3_Da4a_Fa36a_12'
p1928
F0.089194166666666672
sS'30_1_0__Da8a__8'
p1929
F0.0026833616666666667
sS'80_3_0_3_Da12a_Fa36a_8'
p1930
F0.051331349999999998
sS'30_1_0__Da8a__4'
p1931
F0.0043875633333333329
sS'30_1_0__Da8a__2'
p1932
F0.0080712283333333329
sS'30_1_0__Da8a__1'
p1933
F0.0077855416666666663
sS'80_3_0_3_Da8a_Fa24a_12'
p1934
F0.049525416666666662
sS'100_1_0__Da4a_Fa36a_1'
p1935
F0.29775883333333336
sS'80_8_0___Fa6a_8'
p1936
F0.53552350000000004
sS'80_8_0___Fa6a_4'
p1937
F0.69389183333333326
sS'80_8_0___Fa6a_2'
p1938
F1.2875083333333335
sS'80_8_0___Fa6a_1'
p1939
F2.3990733333333334
sS'100_1_0__Da2a_Fa6a_8'
p1940
F0.18421866666666667
sS'100_8_0_3_Da2a_Fa36a_2'
p1941
F1.9747166666666667
sS'30_8_0_3_Da12a_Fa6a_12'
p1942
F0.034222983333333339
sS'80_3_0_3_Da4a_Fa6a_2'
p1943
F0.1427165
sS'100_3_0__Da12a_Fa36a_12'
p1944
F0.15482516666666665
sS'80_3_0_3_Da4a_Fa6a_1'
p1945
F0.31265066666666663
sS'100_8_0_3_Da2a_Fa36a_8'
p1946
F0.59735466666666659
sS'80_3_0_3_Da4a_Fa6a_8'
p1947
F0.068427133333333334
sS'30_3_0_3_Da12a_Fa24a_8'
p1948
F0.0043906733333333335
sS'80_1_0_3_Da2a_Fa36a_12'
p1949
F0.02488346666666667
sS'30_3_0_3_Da12a_Fa24a_1'
p1950
F0.015285766666666666
sS'30_3_0_3_Da12a_Fa24a_2'
p1951
F0.0073295233333333333
sS'30_3_0_3_Da12a_Fa24a_4'
p1952
F0.0045683116666666674
sS'80_8_0__Da12a_Fa18a_2'
p1953
F1.2394100000000001
sS'80_3_0_3_Da8a_Fa36a_1'
p1954
F0.31264466666666668
sS'80_3_0_3_Da8a_Fa36a_2'
p1955
F0.14306366666666667
sS'30_1_0__Da4a_Fa18a_4'
p1956
F0.0046410016666666668
sS'80_3_0_3_Da8a_Fa36a_4'
p1957
F0.077021533333333336
sS'30_1_0__Da4a_Fa18a_2'
p1958
F0.0083533283333333333
sS'30_1_0__Da4a_Fa18a_1'
p1959
F0.007812258333333333
sS'80_3_0_3_Da8a_Fa36a_8'
p1960
F0.051738600000000003
sS'80_8_0_3_Da8a_Fa24a_12'
p1961
F0.2864733333333333
sS'30_1_0__Da4a_Fa18a_8'
p1962
F0.0029725766666666661
sS'100_1_0___Fa12a_4'
p1963
F0.1744725
sS'spe10_3_0_3_Da12a_Fa18a_8'
p1964
F0.10492083333333334
sS'100_1_0___Fa12a_1'
p1965
F0.30122616666666668
sS'100_1_0___Fa12a_2'
p1966
F0.32825333333333334
sS'100_1_0_3_Da8a__1'
p1967
F0.30167566666666673
sS'spe10_3_0_3_Da12a_Fa18a_4'
p1968
F0.16047150000000002
sS'100_1_0___Fa12a_8'
p1969
F0.11459633333333331
sS'spe10_3_0_3_Da12a_Fa18a_1'
p1970
F0.65548466666666672
sS'spe10_3_0_3_Da12a_Fa18a_2'
p1971
F0.29760583333333329
sS'spe10_3_0_3_Da12a__8'
p1972
F0.099072233333333329
sS'30_3_0_3_Da12a_Fa12a_8'
p1973
F0.0044006000000000002
sS'spe10_3_0_3_Da12a__2'
p1974
F0.29763633333333334
sS'30_3_0_3_Da12a_Fa12a_4'
p1975
F0.0046047950000000001
sS'spe10_3_0_3_Da12a__1'
p1976
F0.65297383333333336
sS'30_3_0_3_Da12a_Fa12a_1'
p1977
F0.015403866666666667
sS'spe10_3_0_3_Da12a__4'
p1978
F0.15919766666666665
sS'30_3_0_3_Da12a_Fa12a_2'
p1979
F0.0072895250000000007
sS'80_3_0_3_Da2a_Fa24a_2'
p1980
F0.1470495
sS'30_8_0___Fa36a_4'
p1981
F0.030168100000000003
sS'30_8_0___Fa36a_2'
p1982
F0.057880899999999992
sS'30_8_0___Fa36a_1'
p1983
F0.12234200000000001
sS'spe10_3_0__Da4a_Fa6a_4'
p1984
F0.52655700000000005
sS'spe10_3_0__Da4a_Fa6a_1'
p1985
F0.65265633333333339
sS'spe10_3_0__Da4a_Fa6a_2'
p1986
F0.74666333333333335
sS'spe10_3_0__Da2a_Fa6a_2'
p1987
F0.69326016666666668
sS'80_3_0_3_Da2a__12'
p1988
F0.043947449999999999
sS'30_1_0_3_Da8a_Fa18a_2'
p1989
F0.0045325183333333333
sS'30_3_0__Da12a__2'
p1990
F0.014882050000000001
sS'30_8_0___Fa24a_12'
p1991
F0.013398583333333334
sS'100_1_0__Da12a__4'
p1992
F0.20140950000000002
sS'100_3_0__Da2a_Fa12a_12'
p1993
F0.19196683333333334
sS'30_8_0_3__Fa12a_8'
p1994
F0.017567266666666668
sS'100_1_0_3__Fa36a_12'
p1995
F0.047339866666666668
sS'30_8_0_3__Fa12a_4'
p1996
F0.027843700000000002
sS'30_8_0_3__Fa12a_1'
p1997
F0.12285316666666668
sS'30_8_0_3__Fa12a_2'
p1998
F0.052358066666666668
sS'100_1_0__Da8a_Fa6a_12'
p1999
F0.15773316666666667
sS'80_3_0_3__Fa24a_12'
p2000
F0.043954699999999992
sS'100_8_0_3_Da8a_Fa18a_12'
p2001
F0.53619683333333334
sS'100_3_0__Da8a__2'
p2002
F0.59793350000000001
sS'spe10_3_0_3_Da4a_Fa18a_4'
p2003
F0.16588866666666666
sS'100_3_0__Da8a__1'
p2004
F0.63048899999999997
sS'spe10_3_0_3_Da4a_Fa18a_2'
p2005
F0.30920633333333331
sS'100_8_0_3__Fa12a_12'
p2006
F0.53610449999999998
sS'100_3_0__Da8a__4'
p2007
F0.3086491666666667
sS'spe10_3_0_3_Da4a_Fa18a_1'
p2008
F0.6491971666666666
sS'30_3_0_3_Da4a_Fa6a_12'
p2009
F0.0046095016666666657
sS'100_3_0__Da8a__8'
p2010
F0.167408
sS'spe10_3_0_3_Da4a_Fa18a_8'
p2011
F0.10325933333333333
sS'100_1_0_3_Da4a_Fa18a_12'
p2012
F0.047296600000000001
sS'80_1_0__Da4a_Fa12a_1'
p2013
F0.15200883333333332
sS'80_1_0__Da4a_Fa12a_2'
p2014
F0.16771083333333334
sS'30_8_0__Da12a_Fa24a_8'
p2015
F0.018138600000000001
sS'80_1_0__Da4a_Fa12a_4'
p2016
F0.092368266666666657
sS'spe10_3_0_3__Fa12a_1'
p2017
F0.64721200000000001
sS'80_1_0__Da4a_Fa12a_8'
p2018
F0.062366466666666669
sS'30_8_0__Da12a_Fa24a_2'
p2019
F0.058578300000000007
sS'30_8_0__Da12a_Fa24a_1'
p2020
F0.12294883333333334
sS'80_8_0_3_Da2a_Fa18a_4'
p2021
F0.53386483333333334
sS'80_8_0_3_Da2a_Fa18a_2'
p2022
F1.017935
sS'80_8_0_3_Da2a_Fa18a_1'
p2023
F2.3969433333333336
sS'30_8_0__Da12a_Fa24a_4'
p2024
F0.030767766666666668
sS'100_8_0__Da4a_Fa36a_12'
p2025
F0.59601000000000004
sS'30_1_0_3_Da2a_Fa18a_12'
p2026
F0.0020960783333333335
sS'30_1_0__Da8a_Fa36a_12'
p2027
F0.0019781033333333329
sS'30_1_0__Da12a_Fa24a_12'
p2028
F0.0024466233333333334
sS'30_8_0_3_Da12a_Fa6a_4'
p2029
F0.033123183333333334
sS'80_8_0__Da8a_Fa18a_8'
p2030
F0.3474821666666667
sS'30_8_0_3_Da12a_Fa6a_2'
p2031
F0.053441000000000009
sS'100_1_0__Da2a_Fa18a_1'
p2032
F0.29945366666666667
sS'100_1_0__Da2a_Fa18a_2'
p2033
F0.32745550000000007
sS'30_8_0_3_Da12a_Fa6a_1'
p2034
F0.12230716666666668
sS'80_8_0__Da8a_Fa18a_2'
p2035
F1.1533599999999999
sS'80_8_0__Da8a_Fa18a_1'
p2036
F2.4066149999999999
sS'100_1_0__Da2a_Fa18a_8'
p2037
F0.10563650000000001
sS'30_8_0_3_Da12a_Fa6a_8'
p2038
F0.033312100000000004
sS'80_8_0__Da8a_Fa18a_4'
p2039
F0.60163333333333335
sS'80_1_0__Da8a_Fa6a_8'
p2040
F0.071784133333333333
sS'100_8_0_3_Da12a_Fa18a_8'
p2041
F0.64687216666666669
sS'80_1_0__Da8a_Fa6a_4'
p2042
F0.086698749999999991
sS'80_1_0__Da8a_Fa6a_1'
p2043
F0.15365383333333335
sS'80_1_0__Da8a_Fa6a_2'
p2044
F0.14959533333333333
sS'100_1_0_3_Da4a_Fa6a_4'
p2045
F0.093364500000000003
sS'100_8_0_3_Da8a_Fa24a_8'
p2046
F0.63017066666666666
sS'100_1_0_3_Da4a_Fa6a_1'
p2047
F0.30153600000000003
sS'100_1_0_3_Da4a_Fa6a_2'
p2048
F0.16783200000000001
sS'100_8_0_3_Da8a_Fa24a_2'
p2049
F1.9855766666666668
sS'100_8_0_3_Da8a_Fa24a_1'
p2050
F4.7798666666666669
sS'100_1_0_3_Da4a_Fa6a_8'
p2051
F0.076171383333333328
sS'100_8_0_3_Da8a_Fa24a_4'
p2052
F1.0403583333333333
sS'spe10_3_0_3_Da12a_Fa36a_12'
p2053
F0.090549499999999991
sS'80_1_0_3_Da8a_Fa24a_8'
p2054
F0.029972716666666666
sS'80_1_0_3_Da8a_Fa24a_1'
p2055
F0.15344716666666663
sS'80_1_0_3_Da8a_Fa24a_2'
p2056
F0.084148883333333327
sS'80_1_0_3_Da8a_Fa24a_4'
p2057
F0.0449337
sS'100_1_0___Fa6a_8'
p2058
F0.17658133333333334
sS'30_8_0__Da4a_Fa36a_2'
p2059
F0.058548099999999999
sS'100_8_0_3_Da12a_Fa18a_1'
p2060
F4.7915333333333336
sS'30_8_0__Da4a_Fa36a_1'
p2061
F0.12242550000000001
sS'30_8_0__Da4a_Fa36a_4'
p2062
F0.030578150000000002
sS'80_8_0_3__Fa12a_8'
p2063
F0.31947316666666664
sS'spe10_3_0_3_Da8a_Fa12a_12'
p2064
F0.12247633333333335
sS'30_8_0__Da4a_Fa36a_8'
p2065
F0.017664366666666667
sS'80_8_0_3__Fa12a_4'
p2066
F0.53269133333333341
sS'80_8_0_3__Fa12a_2'
p2067
F1.0250566666666667
sS'80_3_0___Fa6a_12'
p2068
F0.15643116666666668
sS'spe10_3_0__Da2a_Fa18a_8'
p2069
F0.19884133333333331
sS'30_1_0_3_Da4a_Fa6a_4'
p2070
F0.0027678249999999998
sS'100_8_0_3_Da8a_Fa24a_12'
p2071
F0.51876166666666668
sS'30_1_0_3_Da4a_Fa6a_1'
p2072
F0.0079033383333333325
sS'100_8_0_3_Da12a_Fa24a_12'
p2073
F0.54469299999999998
sS'30_1_0_3_Da4a_Fa6a_2'
p2074
F0.0045028400000000001
sS'spe10_3_0__Da2a_Fa18a_1'
p2075
F0.64719616666666668
sS'spe10_3_0__Da2a_Fa18a_2'
p2076
F0.64432216666666664
sS'spe10_3_0__Da2a_Fa18a_4'
p2077
F0.34501633333333331
sS'30_1_0_3_Da4a_Fa6a_8'
p2078
F0.0027014533333333331
sS'spe10_3_0__Da12a_Fa24a_2'
p2079
F0.77121816666666676
sS'spe10_3_0__Da12a_Fa24a_1'
p2080
F0.65032066666666677
sS'100_8_0__Da4a__4'
p2081
F1.2927649999999999
sS'80_1_0_3_Da4a__12'
p2082
F0.024637549999999998
sS'spe10_3_0__Da12a_Fa24a_4'
p2083
F0.41418483333333334
sS'spe10_3_0__Da12a_Fa24a_8'
p2084
F0.24400416666666669
sS'80_1_0_3_Da2a_Fa18a_12'
p2085
F0.024954599999999997
sS'100_1_0__Da4a_Fa36a_8'
p2086
F0.10909583333333334
sS'spe10_3_0__Da4a_Fa24a_12'
p2087
F0.168986
sS'spe10_3_0_3__Fa6a_12'
p2088
F0.20958849999999998
sS'80_1_0_3_Da4a_Fa24a_2'
p2089
F0.084396866666666667
sS'30_8_0__Da4a__8'
p2090
F0.017899099999999998
sS'100_3_0_3_Da2a_Fa24a_8'
p2091
F0.096257800000000004
sS'30_8_0__Da4a__1'
p2092
F0.12246916666666667
sS'30_8_0__Da4a__2'
p2093
F0.059861299999999999
sS'30_8_0__Da4a__4'
p2094
F0.031122449999999999
sS'100_3_0_3_Da2a_Fa24a_2'
p2095
F0.29523450000000001
sS'80_3_0_3_Da2a_Fa24a_4'
p2096
F0.078337816666666671
sS'30_1_0___Fa36a_4'
p2097
F0.0043428233333333332
sS'30_8_0___Fa24a_8'
p2098
F0.017222266666666666
sS'30_1_0___Fa36a_1'
p2099
F0.0078755783333333343
sS'30_8_0___Fa24a_4'
p2100
F0.030067899999999998
sS'100_8_0__Da4a__8'
p2101
F0.73196199999999989
sS'30_8_0___Fa24a_1'
p2102
F0.12295566666666667
sS'30_8_0___Fa24a_2'
p2103
F0.057668350000000007
sS'80_1_0_3_Da4a_Fa24a_4'
p2104
F0.045049933333333327
sS'80_8_0_3_Da4a_Fa12a_2'
p2105
F1.0076666666666667
sS'80_8_0_3_Da4a_Fa12a_1'
p2106
F2.3983466666666668
sS'30_3_0_3__Fa36a_12'
p2107
F0.0028309466666666667
sS'80_8_0_3_Da4a_Fa12a_4'
p2108
F0.53473366666666666
sS'80_8_0_3_Da4a_Fa12a_8'
p2109
F0.32366166666666668
sS'100_1_0____12'
p2110
F0.21967883333333335
sS'80_3_0__Da4a__12'
p2111
F0.07870803333333333
sS'80_8_0_3_Da2a_Fa36a_12'
p2112
F0.2390933333333333
sS'80_8_0_3_Da12a_Fa36a_2'
p2113
F1.0052316666666665
sS'80_3_0__Da4a_Fa36a_4'
p2114
F0.16245783333333333
sS'100_8_0__Da2a_Fa6a_2'
p2115
F2.5593633333333332
sS'80_3_0__Da4a_Fa36a_1'
p2116
F0.31430566666666665
sS'80_3_0__Da4a_Fa36a_2'
p2117
F0.30850216666666669
sS'100_8_0__Da2a_Fa6a_8'
p2118
F1.0509616666666666
sS'80_3_0__Da4a_Fa36a_8'
p2119
F0.092688066666666666
sS'30_1_0_3_Da12a__4'
p2120
F0.0028036066666666665
sS'30_1_0_3_Da12a__1'
p2121
F0.0078088316666666659
sS'30_1_0_3_Da12a__2'
p2122
F0.00443086
sS'100_3_0__Da12a__12'
p2123
F0.14762500000000003
sS'30_1_0_3_Da12a__8'
p2124
F0.0027054766666666668
sS'80_3_0_3_Da2a_Fa6a_1'
p2125
F0.31095250000000002
sS'80_3_0_3_Da2a_Fa6a_2'
p2126
F0.14581000000000002
sS'80_3_0_3_Da2a_Fa6a_4'
p2127
F0.082501149999999995
sS'80_3_0_3_Da2a_Fa6a_8'
p2128
F0.069476333333333334
sS'100_8_0_3_Da2a__12'
p2129
F0.46938966666666665
sS'spe10_3_0_3_Da8a_Fa18a_8'
p2130
F0.103132
sS'80_3_0__Da12a_Fa12a_12'
p2131
F0.087676933333333332
sS'100_1_0_3_Da12a_Fa18a_2'
p2132
F0.16594983333333335
sS'100_3_0_3_Da4a__1'
p2133
F0.62943100000000007
sS'spe10_3_0_3_Da8a_Fa18a_2'
p2134
F0.302346
sS'spe10_3_0_3_Da8a_Fa18a_1'
p2135
F0.65376333333333325
sS'spe10_3_0_3_Da8a_Fa18a_4'
p2136
F0.16152366666666665
sS'100_8_0_3__Fa6a_1'
p2137
F4.7718400000000001
sS'100_8_0___Fa24a_12'
p2138
F0.59494766666666665
sS'100_8_0_3___12'
p2139
F0.45186900000000002
sS'100_1_0_3_Da8a__2'
p2140
F0.16897166666666666
sS'80_8_0__Da12a_Fa24a_8'
p2141
F0.37910350000000004
sS'80_8_0__Da12a_Fa12a_12'
p2142
F0.3197565
sS'100_1_0_3_Da8a_Fa12a_8'
p2143
F0.058091516666666669
sS'100_1_0_3_Da8a_Fa12a_4'
p2144
F0.088797116666666676
sS'80_8_0__Da12a_Fa24a_1'
p2145
F2.4029833333333337
sS'80_8_0__Da12a_Fa24a_2'
p2146
F1.23705
sS'80_8_0__Da12a_Fa24a_4'
p2147
F0.64949266666666661
sS'100_1_0_3_Da8a_Fa12a_1'
p2148
F0.29967166666666667
sS'30_8_0_3_Da4a_Fa36a_12'
p2149
F0.0184835
sS'30_1_0__Da4a_Fa24a_12'
p2150
F0.0024646683333333333
sS'100_3_0_3_Da2a_Fa18a_12'
p2151
F0.085399683333333351
sS'100_8_0__Da4a_Fa6a_12'
p2152
F1.1342983333333334
sS'30_8_0__Da2a_Fa36a_4'
p2153
F0.030219583333333331
sS'100_3_0_3_Da12a_Fa12a_8'
p2154
F0.10332416666666666
sS'80_1_0__Da2a_Fa6a_12'
p2155
F0.088600333333333336
sS'80_8_0_3_Da4a__2'
p2156
F1.0125716666666669
sS'30_8_0__Da2a_Fa36a_1'
p2157
F0.12209916666666666
sS'30_8_0__Da2a_Fa36a_2'
p2158
F0.058075349999999998
sS'30_3_0_3_Da8a_Fa36a_4'
p2159
F0.0045979233333333334
sS'30_3_0_3_Da8a_Fa36a_2'
p2160
F0.007510348333333334
sS'30_3_0_3_Da8a_Fa36a_1'
p2161
F0.015383483333333335
sS'30_8_0__Da2a_Fa12a_2'
p2162
F0.057889049999999997
sS'100_8_0_3__Fa6a_12'
p2163
F0.90067166666666665
sS'30_3_0_3_Da8a_Fa36a_8'
p2164
F0.0042904116666666672
sS'80_1_0__Da4a_Fa36a_2'
p2165
F0.16465966666666668
sS'100_3_0_3_Da12a_Fa12a_4'
p2166
F0.15548799999999999
sS'80_1_0__Da4a_Fa36a_1'
p2167
F0.15272349999999998
sS'80_1_0__Da4a_Fa36a_4'
p2168
F0.088170399999999996
sS'80_1_0__Da4a_Fa36a_8'
p2169
F0.050902383333333336
sS'30_3_0_3_Da8a_Fa12a_2'
p2170
F0.0075071383333333332
sS'30_1_0__Da2a_Fa18a_4'
p2171
F0.0044891233333333334
sS'30_1_0__Da2a_Fa18a_1'
p2172
F0.0078412266666666678
sS'30_1_0__Da2a_Fa18a_2'
p2173
F0.008037314999999998
sS'30_1_0__Da2a_Fa18a_8'
p2174
F0.002870523333333333
sS'30_3_0_3_Da4a_Fa18a_2'
p2175
F0.0073914466666666657
sS'30_3_0_3_Da4a_Fa18a_1'
p2176
F0.015345349999999999
sS'100_3_0__Da2a_Fa24a_12'
p2177
F0.15042266666666668
sS'30_8_0___Fa18a_12'
p2178
F0.014170883333333335
sS'30_3_0_3_Da4a_Fa18a_4'
p2179
F0.004362515
sS'30_3_0_3_Da4a_Fa18a_8'
p2180
F0.0032702716666666663
sS'spe10_3_0_3_Da8a__12'
p2181
F0.088888483333333337
sS'100_8_0__Da2a__12'
p2182
F0.54468383333333337
sS'100_3_0__Da12a_Fa18a_12'
p2183
F0.181667
sS'80_3_0_3_Da8a_Fa6a_12'
p2184
F0.077763516666666671
sS'100_8_0_3_Da4a_Fa6a_4'
p2185
F1.0686216666666668
sS'100_3_0__Da4a_Fa6a_12'
p2186
F0.33781766666666663
sS'30_3_0_3_Da8a_Fa36a_12'
p2187
F0.0046053100000000005
sS'80_8_0__Da4a_Fa12a_12'
p2188
F0.32903949999999998
sS'80_3_0__Da2a__1'
p2189
F0.31149833333333332
sS'100_1_0__Da2a_Fa18a_4'
p2190
F0.17702150000000003
sS'100_1_0___Fa6a_1'
p2191
F0.29606116666666665
sS'100_1_0___Fa6a_2'
p2192
F0.35132583333333339
sS'100_1_0___Fa6a_4'
p2193
F0.20656416666666666
sS'spe10_3_0_3_Da2a_Fa36a_12'
p2194
F0.084558233333333344
sS'100_8_0__Da2a_Fa36a_8'
p2195
F0.7392025000000001
sS'80_3_0__Da2a__2'
p2196
F0.36856366666666668
sS'100_8_0__Da2a_Fa36a_1'
p2197
F4.7771583333333334
sS'100_8_0__Da2a_Fa36a_2'
p2198
F2.4190783333333332
sS'100_1_0_3_Da8a__8'
p2199
F0.056012849999999996
sS'spe10_3_0__Da4a__8'
p2200
F0.21977116666666666
sS'spe10_3_0__Da4a__4'
p2201
F0.3971615
sS'80_1_0__Da8a_Fa18a_1'
p2202
F0.15182833333333332
sS'spe10_3_0_3_Da12a_Fa24a_12'
p2203
F0.097973533333333349
sS'spe10_3_0__Da4a__2'
p2204
F0.74290200000000006
sS'80_1_0___Fa6a_4'
p2205
F0.097144316666666675
sS'100_8_0_3_Da2a__8'
p2206
F0.59852716666666672
sS'80_8_0___Fa18a_12'
p2207
F0.30634749999999999
sS'80_1_0_3__Fa24a_1'
p2208
F0.15377466666666664
sS'80_1_0_3__Fa24a_2'
p2209
F0.088374066666666654
sS'80_1_0_3__Fa24a_4'
p2210
F0.048288083333333336
sS'30_1_0__Da12a_Fa36a_12'
p2211
F0.0023694783333333331
sS'80_8_0_3_Da12a_Fa6a_1'
p2212
F2.3993483333333336
sS'30_1_0_3_Da8a_Fa24a_8'
p2213
F0.0025525433333333332
sS'80_8_0_3_Da12a_Fa6a_2'
p2214
F1.0135283333333334
sS'80_1_0____8'
p2215
F0.12614683333333332
sS'30_1_0_3_Da8a_Fa24a_4'
p2216
F0.0028239233333333335
sS'30_1_0_3_Da8a_Fa24a_2'
p2217
F0.0044924183333333338
sS'80_8_0_3_Da12a_Fa6a_8'
p2218
F0.49065816666666673
sS'80_1_0___Fa6a_1'
p2219
F0.15000483333333334
sS'80_3_0_3_Da2a_Fa12a_12'
p2220
F0.050567933333333336
sS'30_1_0_3__Fa12a_12'
p2221
F0.0020080649999999999
sS'30_8_0__Da4a_Fa24a_12'
p2222
F0.014213633333333331
sS'80_8_0_3_Da8a_Fa24a_8'
p2223
F0.33487583333333332
sS'80_1_0_3_Da8a__12'
p2224
F0.026670633333333332
sS'80_8_0_3_Da8a_Fa24a_4'
p2225
F0.53769483333333334
sS'80_8_0_3_Da8a_Fa24a_2'
p2226
F1.020715
sS'100_1_0_3_Da2a_Fa12a_1'
p2227
F0.30052050000000002
sS'80_8_0_3_Da8a_Fa24a_1'
p2228
F2.3976700000000002
sS'100_1_0__Da8a_Fa18a_8'
p2229
F0.091928499999999982
sS'100_1_0__Da8a_Fa18a_2'
p2230
F0.30305466666666669
sS'100_1_0__Da8a_Fa18a_1'
p2231
F0.29754183333333334
sS'100_1_0__Da8a_Fa18a_4'
p2232
F0.15690849999999998
sS'80_1_0_3_Da8a_Fa36a_12'
p2233
F0.026662066666666664
sS'80_1_0____2'
p2234
F0.32090116666666663
sS'80_3_0___Fa36a_12'
p2235
F0.066672349999999991
sS'100_3_0__Da8a__12'
p2236
F0.127584
sS'100_1_0__Da12a__8'
p2237
F0.1138965
sS'100_8_0__Da12a_Fa24a_12'
p2238
F0.60078066666666663
sS'80_1_0__Da4a_Fa18a_12'
p2239
F0.046726033333333333
sS'100_1_0__Da4a_Fa6a_12'
p2240
F0.19512416666666668
sS'80_1_0_3_Da4a_Fa24a_1'
p2241
F0.15195383333333334
sS'100_3_0_3___8'
p2242
F0.09673601666666666
sS'100_3_0__Da2a_Fa18a_2'
p2243
F0.63777133333333336
sS'100_3_0__Da2a_Fa18a_1'
p2244
F0.62829333333333326
sS'100_3_0__Da2a_Fa18a_4'
p2245
F0.33814300000000003
sS'100_3_0__Da2a_Fa18a_8'
p2246
F0.19814699999999999
sS'100_1_0_3__Fa36a_1'
p2247
F0.30023350000000004
sS'30_8_0_3_Da4a_Fa6a_8'
p2248
F0.027251783333333335
sS'30_8_0_3_Da4a_Fa6a_4'
p2249
F0.029824783333333337
sS'30_8_0__Da2a_Fa36a_12'
p2250
F0.013408700000000001
sS'30_8_0_3_Da4a_Fa6a_1'
p2251
F0.12214616666666667
sS'30_8_0_3_Da4a_Fa6a_2'
p2252
F0.052493866666666666
sS'80_8_0_3_Da4a_Fa36a_8'
p2253
F0.31010850000000001
sS'100_1_0_3_Da4a_Fa6a_12'
p2254
F0.082215966666666668
sS'100_1_0__Da12a_Fa36a_1'
p2255
F0.29897450000000003
sS'80_8_0_3_Da4a_Fa36a_1'
p2256
F2.3958033333333333
sS'100_3_0__Da4a_Fa12a_2'
p2257
F0.68319716666666663
sS'80_8_0_3_Da4a_Fa36a_2'
p2258
F1.0063216666666668
sS'spe10_3_0__Da4a_Fa36a_12'
p2259
F0.15703199999999998
sS'100_3_0_3___4'
p2260
F0.15466633333333335
sS'100_1_0__Da12a_Fa36a_4'
p2261
F0.18511616666666666
sS'100_8_0_3_Da12a__1'
p2262
F4.7764316666666673
sS'100_3_0_3_Da8a_Fa6a_12'
p2263
F0.14761616666666666
sS'100_8_0_3_Da12a__2'
p2264
F1.9621766666666665
sS'80_3_0__Da8a_Fa24a_2'
p2265
F0.26704933333333331
sS'80_3_0__Da8a_Fa24a_1'
p2266
F0.31373966666666669
sS'100_1_0__Da12a_Fa12a_4'
p2267
F0.19254766666666664
sS'80_1_0_3_Da8a_Fa18a_12'
p2268
F0.026960083333333339
sS'80_3_0__Da8a_Fa24a_4'
p2269
F0.14092350000000001
sS'30_8_0_3_Da2a_Fa6a_12'
p2270
F0.027962249999999998
sS'80_3_0__Da8a_Fa24a_8'
p2271
F0.07988491666666668
sS'30_8_0_3__Fa18a_12'
p2272
F0.014444266666666665
sS'100_1_0__Da12a_Fa36a_8'
p2273
F0.10858533333333333
sS'80_3_0_3_Da2a_Fa36a_12'
p2274
F0.044345699999999995
sS'80_3_0_3_Da4a__12'
p2275
F0.044246716666666665
sS'spe10_3_0_3__Fa36a_2'
p2276
F0.3075538333333333
sS'80_1_0___Fa36a_12'
p2277
F0.036991166666666658
sS'80_8_0_3_Da12a_Fa12a_2'
p2278
F1.0034366666666668
sS'100_3_0__Da12a_Fa24a_2'
p2279
F0.65675933333333336
sS'80_3_0_3__Fa18a_12'
p2280
F0.045417049999999994
sS'100_1_0___Fa24a_1'
p2281
F0.29969283333333335
sS'100_1_0_3_Da12a_Fa12a_2'
p2282
F0.1648105
sS'100_1_0_3_Da12a_Fa12a_1'
p2283
F0.29998083333333336
sS'80_1_0_3__Fa12a_8'
p2284
F0.030443666666666671
sS'100_1_0_3_Da12a_Fa12a_4'
p2285
F0.088765583333333328
sS'30_1_0__Da2a_Fa18a_12'
p2286
F0.0024739316666666667
sS'80_1_0_3__Fa12a_4'
p2287
F0.04797995
sS'100_1_0_3_Da12a_Fa12a_8'
p2288
F0.058544183333333326
sS'80_1_0_3__Fa12a_1'
p2289
F0.15075550000000001
sS'80_1_0_3__Fa12a_2'
p2290
F0.089084516666666669
sS'80_3_0_3_Da12a_Fa6a_8'
p2291
F0.072579116666666665
sS'80_3_0_3__Fa24a_4'
p2292
F0.079530833333333342
sS'80_3_0_3__Fa24a_2'
p2293
F0.150201
sS'80_3_0_3__Fa24a_1'
p2294
F0.31086400000000003
sS'80_3_0_3_Da12a_Fa6a_1'
p2295
F0.31291866666666662
sS'80_3_0_3_Da12a_Fa6a_2'
p2296
F0.14159533333333332
sS'100_8_0_3_Da12a_Fa6a_2'
p2297
F1.9879683333333336
sS'80_3_0_3_Da12a_Fa6a_4'
p2298
F0.079152449999999985
sS'80_3_0_3__Fa24a_8'
p2299
F0.049357566666666665
sS'100_3_0_3_Da4a__2'
p2300
F0.28560099999999999
sS'100_1_0_3_Da12a__4'
p2301
F0.088572633333333331
sS'100_1_0_3_Da12a__2'
p2302
F0.16711533333333331
sS'30_3_0__Da4a_Fa36a_12'
p2303
F0.0038433533333333335
sS'100_1_0_3_Da12a__8'
p2304
F0.05690251666666666
sS'30_1_0__Da12a_Fa18a_12'
p2305
F0.0025779416666666666
sS'80_1_0__Da2a_Fa6a_4'
p2306
F0.10128783333333335
sS'80_8_0_3_Da12a_Fa12a_8'
p2307
F0.3488613333333333
sS'80_1_0__Da2a_Fa6a_2'
p2308
F0.16466383333333334
sS'80_1_0__Da2a_Fa6a_1'
p2309
F0.14957400000000001
sS'30_3_0___Fa36a_1'
p2310
F0.015428500000000003
sS'30_3_0___Fa36a_2'
p2311
F0.014514249999999999
sS'30_3_0___Fa36a_4'
p2312
F0.0078175399999999996
sS'80_1_0__Da2a_Fa6a_8'
p2313
F0.084186949999999997
sS'100_8_0_3_Da12a_Fa6a_8'
p2314
F0.91860783333333329
sS'80_3_0___Fa24a_8'
p2315
F0.087478366666666682
sS'80_3_0___Fa24a_2'
p2316
F0.29301883333333328
sS'80_3_0___Fa24a_1'
p2317
F0.31115566666666666
sS'80_3_0___Fa24a_4'
p2318
F0.15564016666666666
sS'30_3_0__Da12a__12'
p2319
F0.0038283616666666669
sS'100_8_0__Da2a_Fa12a_8'
p2320
F0.79592799999999997
sS'100_8_0__Da2a_Fa12a_4'
p2321
F1.3266016666666667
sS'100_8_0__Da2a_Fa12a_2'
p2322
F2.5243316666666669
sS'100_8_0__Da2a_Fa12a_1'
p2323
F4.762506666666666
sS'80_1_0_3_Da4a_Fa24a_12'
p2324
F0.02485625
sS'80_3_0_3_Da8a_Fa18a_8'
p2325
F0.051971949999999996
sS'80_3_0_3_Da8a_Fa18a_4'
p2326
F0.077439983333333337
sS'30_3_0__Da8a__12'
p2327
F0.0034059733333333328
sS'80_3_0_3_Da8a_Fa18a_1'
p2328
F0.31130666666666668
sS'80_3_0_3_Da8a_Fa18a_2'
p2329
F0.14451666666666665
sS'100_8_0_3_Da2a_Fa6a_8'
p2330
F0.85288749999999991
sS'100_8_0_3_Da2a_Fa6a_2'
p2331
F2.0200616666666669
sS'100_8_0_3_Da2a_Fa6a_1'
p2332
F4.7878216666666669
sS'100_8_0_3_Da2a_Fa6a_4'
p2333
F1.085315
sS'80_8_0_3_Da4a_Fa6a_12'
p2334
F0.47251449999999995
sS'100_3_0__Da12a__8'
p2335
F0.194213
sS'spe10_3_0___Fa12a_12'
p2336
F0.18237649999999997
sS'30_1_0__Da4a_Fa12a_1'
p2337
F0.0078964383333333336
sS'30_1_0_3_Da4a_Fa12a_2'
p2338
F0.0045533966666666667
sS'30_1_0_3_Da4a_Fa12a_1'
p2339
F0.0078441966666666658
sS'30_1_0__Da4a_Fa12a_2'
p2340
F0.0083502333333333335
sS'80_3_0__Da2a__4'
p2341
F0.19195816666666668
sS'30_1_0__Da4a_Fa12a_4'
p2342
F0.0047062799999999993
sS'100_8_0__Da4a__1'
p2343
F4.7651033333333332
sS'30_1_0_3_Da4a_Fa12a_4'
p2344
F0.0026783266666666667
sS'80_3_0__Da2a__8'
p2345
F0.1123975
sS'30_1_0__Da4a_Fa12a_8'
p2346
F0.003217678333333333
sS'30_1_0_3_Da4a_Fa12a_8'
p2347
F0.0020680266666666665
sS'80_3_0__Da4a_Fa24a_2'
p2348
F0.30539983333333331
sS'30_3_0_3_Da12a__4'
p2349
F0.0045995916666666673
sS'30_3_0_3_Da12a__2'
p2350
F0.0073137516666666666
sS'30_3_0_3_Da12a__1'
p2351
F0.015371950000000001
sS'100_3_0_3_Da8a__12'
p2352
F0.089733333333333332
sS'30_3_0_3_Da12a__8'
p2353
F0.0043634600000000004
sS'30_1_0__Da2a_Fa36a_12'
p2354
F0.0023487533333333335
sS'spe10_3_0__Da2a_Fa36a_8'
p2355
F0.18691100000000002
sS'30_3_0_3_Da8a_Fa12a_8'
p2356
F0.0042843300000000003
sS'30_8_0__Da2a_Fa12a_8'
p2357
F0.018888016666666667
sS'spe10_3_0__Da2a_Fa36a_4'
p2358
F0.33917599999999998
sS'30_3_0_3_Da8a_Fa12a_4'
p2359
F0.0046259016666666672
sS'30_8_0__Da2a_Fa12a_4'
p2360
F0.03076018333333333
sS'30_3_0_3_Da8a_Fa12a_1'
p2361
F0.015386799999999999
sS'spe10_3_0__Da2a_Fa36a_1'
p2362
F0.649285
sS'spe10_3_0__Da2a_Fa36a_2'
p2363
F0.64578150000000012
sS'30_8_0__Da2a_Fa12a_1'
p2364
F0.12253033333333335
sS'100_1_0_3_Da2a_Fa36a_12'
p2365
F0.046562999999999993
sS'spe10_3_0__Da8a_Fa24a_12'
p2366
F0.19303999999999999
sS'30_1_0___Fa12a_4'
p2367
F0.0043165833333333337
sS'100_1_0__Da12a__12'
p2368
F0.088134333333333328
sS'30_1_0___Fa12a_1'
p2369
F0.007814288333333334
sS'30_1_0___Fa12a_2'
p2370
F0.0077631449999999991
sS'100_8_0_3_Da8a_Fa6a_12'
p2371
F0.95292533333333329
sS'30_1_0___Fa12a_8'
p2372
F0.0029180016666666667
sS'30_3_0_3_Da4a_Fa36a_12'
p2373
F0.003354996666666667
sS'100_1_0_3_Da4a_Fa24a_2'
p2374
F0.1684485
sS'100_8_0_3_Da2a_Fa36a_12'
p2375
F0.46467299999999995
sS'100_3_0_3_Da4a_Fa24a_12'
p2376
F0.085012833333333329
sS'80_3_0_3_Da2a_Fa24a_12'
p2377
F0.04371655
sS'spe10_3_0___Fa24a_8'
p2378
F0.17804750000000003
sS'spe10_3_0___Fa24a_4'
p2379
F0.32351400000000002
sS'spe10_3_0___Fa24a_1'
p2380
F0.65080316666666671
sS'spe10_3_0___Fa24a_2'
p2381
F0.61447050000000003
sS'30_1_0_3_Da4a_Fa36a_8'
p2382
F0.0020602266666666664
sS'80_8_0_3_Da12a_Fa12a_1'
p2383
F2.3906566666666667
sS'100_8_0_3_Da12a_Fa6a_1'
p2384
F4.783315
sS'80_8_0_3_Da12a_Fa12a_4'
p2385
F0.537215
sS'30_1_0_3_Da4a_Fa36a_1'
p2386
F0.0078901449999999995
sS'80_3_0_3_Da8a__12'
p2387
F0.048571683333333331
sS'30_1_0_3_Da4a_Fa36a_2'
p2388
F0.0046505649999999997
sS'30_1_0_3_Da4a_Fa36a_4'
p2389
F0.0026977849999999999
sS'80_1_0__Da8a_Fa36a_4'
p2390
F0.074250233333333346
sS'80_1_0__Da8a_Fa36a_2'
p2391
F0.14118050000000001
sS'100_1_0___Fa36a_4'
p2392
F0.16966916666666665
sS'80_1_0__Da8a_Fa36a_1'
p2393
F0.15093433333333336
sS'80_8_0__Da8a_Fa24a_4'
p2394
F0.59804783333333333
sS'100_8_0_3_Da4a_Fa18a_12'
p2395
F0.49476966666666672
sS'80_1_0__Da8a_Fa36a_8'
p2396
F0.042947399999999997
sS'30_8_0_3_Da12a_Fa18a_8'
p2397
F0.028861733333333337
sS'100_1_0_3_Da4a_Fa24a_8'
p2398
F0.055353666666666669
sS'80_8_0_3__Fa24a_4'
p2399
F0.52445533333333338
sS'80_8_0_3__Fa24a_2'
p2400
F1.0088600000000001
sS'80_8_0_3__Fa24a_1'
p2401
F2.3902016666666666
sS'100_1_0_3_Da4a_Fa24a_1'
p2402
F0.30198533333333338
sS'30_8_0_3_Da12a_Fa18a_1'
p2403
F0.12266466666666666
sS'30_8_0_3_Da12a_Fa18a_2'
p2404
F0.054678033333333341
sS'30_1_0_3_Da2a_Fa18a_8'
p2405
F0.0021541300000000002
sS'30_8_0_3_Da12a_Fa18a_4'
p2406
F0.032233583333333336
sS'100_1_0_3_Da4a_Fa24a_4'
p2407
F0.089067616666666669
sS'80_8_0_3__Fa24a_8'
p2408
F0.30518200000000001
sS'100_8_0_3_Da12a_Fa24a_2'
p2409
F1.9650216666666669
sS'100_8_0_3_Da12a_Fa24a_1'
p2410
F4.7884099999999998
sS'100_8_0_3_Da12a_Fa24a_4'
p2411
F1.0411733333333333
sS'80_1_0__Da2a_Fa24a_8'
p2412
F0.048437199999999993
sS'100_3_0___Fa36a_12'
p2413
F0.13749750000000002
sS'100_8_0_3_Da12a_Fa24a_8'
p2414
F0.64272099999999999
sS'80_1_0__Da2a_Fa24a_4'
p2415
F0.083039316666666654
sS'30_1_0_3_Da2a_Fa6a_12'
p2416
F0.002968835
sS'80_1_0__Da2a_Fa24a_1'
p2417
F0.1521875
sS'100_8_0__Da2a_Fa18a_12'
p2418
F0.61661500000000002
sS'spe10_3_0__Da12a_Fa18a_1'
p2419
F0.65154349999999994
sS'spe10_3_0__Da12a_Fa18a_2'
p2420
F0.77632033333333339
sS'spe10_3_0__Da12a_Fa18a_4'
p2421
F0.42777349999999997
sS'spe10_3_0__Da12a_Fa18a_8'
p2422
F0.27178950000000002
sS'80_1_0__Da2a_Fa24a_2'
p2423
F0.15635183333333333
sS'100_3_0___Fa18a_4'
p2424
F0.33417216666666666
sS'spe10_3_0_3_Da2a__8'
p2425
F0.099871649999999992
sS'100_3_0__Da8a_Fa24a_4'
p2426
F0.29682983333333329
sS'30_1_0_3_Da2a_Fa18a_1'
p2427
F0.0078356216666666673
sS'100_3_0___Fa18a_2'
p2428
F0.65662066666666663
sS'spe10_3_0_3_Da2a__2'
p2429
F0.31416766666666668
sS'spe10_3_0__Da2a_Fa12a_12'
p2430
F0.19120833333333334
sS'spe10_3_0_3_Da2a__1'
p2431
F0.64871316666666667
sS'100_3_0___Fa18a_8'
p2432
F0.19200549999999997
sS'spe10_3_0_3_Da2a__4'
p2433
F0.16795033333333331
sS'100_3_0__Da8a_Fa24a_8'
p2434
F0.17093683333333334
sS'30_8_0_3__Fa18a_8'
p2435
F0.016946883333333333
sS'100_1_0__Da12a_Fa24a_12'
p2436
F0.089831599999999998
sS'30_8_0_3__Fa18a_2'
p2437
F0.05264835000000001
sS'30_8_0_3__Fa18a_1'
p2438
F0.12293850000000001
sS'30_8_0_3__Fa18a_4'
p2439
F0.027992716666666667
sS'80_3_0__Da2a_Fa6a_1'
p2440
F0.30978249999999996
sS'80_3_0__Da2a_Fa6a_2'
p2441
F0.30522683333333334
sS'80_3_0__Da2a_Fa6a_4'
p2442
F0.18925433333333333
sS'100_1_0___Fa24a_8'
p2443
F0.097295066666666666
sS'30_8_0_3__Fa6a_12'
p2444
F0.025497233333333331
sS'100_8_0__Da8a_Fa24a_1'
p2445
F4.7666516666666672
sS'100_8_0__Da8a_Fa24a_2'
p2446
F2.2749116666666667
sS'spe10_3_0__Da8a_Fa12a_12'
p2447
F0.19926133333333332
sS'100_1_0_3_Da2a_Fa18a_8'
p2448
F0.057545483333333342
sS'100_1_0_3_Da2a_Fa18a_4'
p2449
F0.095319566666666675
sS'100_1_0_3_Da2a_Fa18a_1'
p2450
F0.2994175
sS'100_1_0_3_Da2a_Fa18a_2'
p2451
F0.17534549999999996
sS'30_8_0_3__Fa6a_8'
p2452
F0.024366416666666668
sS'30_8_0_3__Fa6a_1'
p2453
F0.12250116666666667
sS'30_8_0_3__Fa6a_2'
p2454
F0.052785883333333332
sS'30_8_0_3__Fa6a_4'
p2455
F0.028706499999999999
sS'80_8_0___Fa36a_1'
p2456
F2.3994849999999999
sS'80_3_0__Da12a_Fa36a_8'
p2457
F0.093542633333333333
sS'80_3_0__Da12a_Fa36a_4'
p2458
F0.16396433333333335
sS'80_3_0__Da12a_Fa36a_2'
p2459
F0.30742949999999997
sS'80_3_0__Da12a_Fa36a_1'
p2460
F0.31405333333333335
sS'80_1_0_3_Da12a_Fa24a_2'
p2461
F0.08145405
sS'80_1_0_3_Da12a_Fa24a_1'
p2462
F0.15283783333333334
sS'80_3_0_3_Da4a_Fa12a_8'
p2463
F0.051181183333333331
sS'80_1_0_3_Da12a_Fa24a_4'
p2464
F0.044379350000000005
sS'100_1_0_3_Da8a_Fa6a_12'
p2465
F0.083401799999999984
sS'80_3_0_3_Da4a_Fa12a_4'
p2466
F0.076890266666666665
sS'80_1_0_3_Da12a_Fa24a_8'
p2467
F0.029317166666666662
sS'80_3_0_3_Da4a_Fa12a_2'
p2468
F0.14269766666666664
sS'80_3_0_3_Da8a_Fa6a_8'
p2469
F0.072261833333333317
sS'80_3_0_3_Da4a_Fa12a_1'
p2470
F0.313052
sS'30_3_0_3_Da2a_Fa6a_1'
p2471
F0.015355333333333334
sS'30_3_0__Da4a_Fa18a_12'
p2472
F0.0042362550000000004
sS'30_3_0_3_Da2a_Fa6a_4'
p2473
F0.0048025683333333333
sS'30_3_0_3_Da2a_Fa6a_8'
p2474
F0.0046258716666666665
sS'100_3_0___Fa18a_1'
p2475
F0.63046150000000012
sS'30_3_0____4'
p2476
F0.012325366666666665
sS'30_1_0__Da2a_Fa6a_12'
p2477
F0.0046706949999999999
sS'30_3_0____1'
p2478
F0.015338483333333335
sS'100_3_0__Da8a_Fa24a_1'
p2479
F0.63126199999999999
sS'30_3_0____2'
p2480
F0.021242616666666669
sS'30_3_0____8'
p2481
F0.0079264650000000006
sS'100_3_0_3_Da2a__12'
p2482
F0.084591949999999985
sS'80_3_0_3_Da8a_Fa6a_2'
p2483
F0.1439385
sS'80_1_0_3_Da12a_Fa18a_12'
p2484
F0.026466300000000002
sS'80_8_0__Da2a_Fa18a_1'
p2485
F2.3923316666666667
sS'100_1_0_3_Da4a_Fa12a_12'
p2486
F0.052816516666666674
sS'80_3_0_3_Da8a_Fa6a_1'
p2487
F0.31438866666666671
sS'100_3_0__Da12a_Fa12a_8'
p2488
F0.2486636666666667
sS'100_8_0_3_Da2a_Fa36a_4'
p2489
F1.0299583333333333
sS'spe10_3_0__Da8a_Fa6a_12'
p2490
F0.358713
sS'80_8_0___Fa24a_8'
p2491
F0.37313383333333333
sS'30_8_0___Fa18a_4'
p2492
F0.02996946666666667
sS'30_8_0_3_Da2a_Fa24a_4'
p2493
F0.028635900000000002
sS'30_8_0___Fa18a_2'
p2494
F0.057462233333333335
sS'30_8_0_3_Da2a_Fa24a_2'
p2495
F0.052789366666666664
sS'30_8_0_3_Da2a_Fa24a_1'
p2496
F0.12298949999999999
sS'30_8_0___Fa18a_1'
p2497
F0.12250216666666665
sS'30_8_0___Fa18a_8'
p2498
F0.017373233333333332
sS'30_8_0_3_Da2a_Fa24a_8'
p2499
F0.0194801
sS'100_3_0___Fa24a_12'
p2500
F0.14666516666666665
sS'100_8_0_3__Fa18a_1'
p2501
F4.7651816666666669
sS'80_1_0__Da2a_Fa36a_12'
p2502
F0.038248883333333338
sS'80_3_0_3__Fa6a_2'
p2503
F0.14656283333333331
sS'30_3_0___Fa12a_2'
p2504
F0.014608099999999999
sS'30_3_0___Fa12a_1'
p2505
F0.0153581
sS'30_3_0___Fa12a_4'
p2506
F0.0078276349999999995
sS'80_3_0_3_Da2a_Fa24a_1'
p2507
F0.31260533333333335
sS'30_3_0___Fa12a_8'
p2508
F0.0050301749999999996
sS'30_1_0__Da8a_Fa18a_12'
p2509
F0.0021132149999999999
sS'30_3_0___Fa24a_4'
p2510
F0.0077564900000000004
sS'30_3_0___Fa24a_2'
p2511
F0.0144388
sS'30_3_0___Fa24a_1'
p2512
F0.015314083333333332
sS'30_3_0___Fa24a_8'
p2513
F0.0045255066666666666
sS'100_3_0_3__Fa36a_12'
p2514
F0.083013916666666673
sS'100_3_0__Da2a_Fa24a_8'
p2515
F0.19048416666666668
sS'30_8_0__Da4a_Fa6a_12'
p2516
F0.027183116666666663
sS'spe10_3_0__Da2a_Fa12a_4'
p2517
F0.356298
sS'100_1_0_3__Fa24a_4'
p2518
F0.094163650000000002
sS'30_8_0_3_Da4a__12'
p2519
F0.018393466666666667
sS'100_1_0_3__Fa24a_2'
p2520
F0.17669666666666664
sS'100_3_0_3_Da2a_Fa12a_12'
p2521
F0.098100716666666657
sS'100_3_0_3_Da4a_Fa6a_1'
p2522
F0.6306668333333334
sS'100_1_0_3__Fa24a_8'
p2523
F0.056942083333333331
sS'30_8_0_3_Da8a_Fa24a_8'
p2524
F0.027304466666666666
sS'spe10_3_0_3__Fa18a_8'
p2525
F0.099998750000000011
sS'100_3_0_3_Da4a_Fa18a_4'
p2526
F0.150697
sS'spe10_3_0_3__Fa18a_2'
p2527
F0.30801066666666671
sS'30_8_0_3_Da8a_Fa24a_2'
p2528
F0.053947833333333334
sS'30_8_0_3_Da8a_Fa24a_4'
p2529
F0.031543299999999996
sS'spe10_3_0_3__Fa18a_4'
p2530
F0.16101016666666668
sS'80_3_0__Da8a_Fa36a_1'
p2531
F0.31307916666666674
sS'80_3_0__Da8a_Fa36a_2'
p2532
F0.26572583333333327
sS'80_3_0__Da8a_Fa36a_4'
p2533
F0.13818749999999999
sS'80_3_0__Da8a_Fa36a_8'
p2534
F0.077951883333333333
sS'100_8_0__Da8a_Fa24a_8'
p2535
F0.6834448333333335
sS'30_3_0_3_Da4a_Fa36a_8'
p2536
F0.0033110883333333334
sS'80_3_0__Da2a_Fa6a_8'
p2537
F0.15166199999999999
sS'100_1_0_3_Da8a_Fa6a_2'
p2538
F0.17043466666666665
sS'100_1_0_3_Da8a_Fa6a_4'
p2539
F0.090820516666666642
sS'30_3_0__Da4a_Fa24a_4'
p2540
F0.0080315083333333329
sS'100_1_0_3_Da8a_Fa6a_8'
p2541
F0.078873333333333337
sS'100_8_0_3_Da8a_Fa36a_8'
p2542
F0.6326248333333333
sS'80_8_0_3_Da2a_Fa18a_8'
p2543
F0.31114066666666668
sS'100_1_0__Da4a_Fa18a_4'
p2544
F0.19002666666666665
sS'30_3_0__Da12a_Fa12a_4'
p2545
F0.0079818866666666651
sS'30_8_0_3_Da4a__8'
p2546
F0.019750916666666667
sS'30_3_0__Da12a_Fa12a_2'
p2547
F0.014565216666666667
sS'30_3_0__Da12a_Fa12a_1'
p2548
F0.015334616666666667
sS'100_1_0__Da4a_Fa18a_1'
p2549
F0.29846066666666671
sS'30_8_0_3_Da4a__4'
p2550
F0.029244716666666667
sS'100_1_0__Da4a__12'
p2551
F0.10509183333333334
sS'30_8_0_3_Da4a__1'
p2552
F0.12179866666666667
sS'30_8_0_3_Da4a__2'
p2553
F0.052721499999999998
sS'30_3_0__Da12a_Fa12a_8'
p2554
F0.0055850983333333333
sS'spe10_3_0_3_Da2a_Fa12a_12'
p2555
F0.12947550000000002
sS'80_3_0__Da2a_Fa18a_12'
p2556
F0.077640366666666669
sS'100_3_0_3__Fa12a_12'
p2557
F0.096484783333333338
sS'100_8_0__Da2a_Fa18a_8'
p2558
F0.76508483333333333
sS'80_8_0_3_Da8a_Fa6a_1'
p2559
F2.3917449999999998
sS'80_8_0_3_Da8a_Fa12a_12'
p2560
F0.33125616666666668
sS'100_3_0_3_Da4a_Fa36a_12'
p2561
F0.083921166666666672
sS'80_3_0__Da4a_Fa12a_4'
p2562
F0.17091316666666667
sS'80_1_0__Da12a_Fa24a_8'
p2563
F0.052335933333333334
sS'80_3_0__Da4a_Fa12a_2'
p2564
F0.30693533333333334
sS'30_1_0__Da4a_Fa36a_12'
p2565
F0.0023904833333333333
sS'80_3_0__Da4a_Fa12a_1'
p2566
F0.30988166666666667
sS'80_1_0__Da12a_Fa24a_2'
p2567
F0.1653273333333333
sS'30_3_0__Da4a_Fa24a_12'
p2568
F0.0039211649999999999
sS'80_3_0__Da4a_Fa12a_8'
p2569
F0.11448116666666665
sS'spe10_3_0_3_Da4a_Fa6a_1'
p2570
F0.65113950000000009
sS'100_8_0_3_Da12a_Fa12a_12'
p2571
F0.62242566666666665
sS'80_8_0_3_Da8a_Fa6a_8'
p2572
F0.47482183333333333
sS'100_8_0__Da2a_Fa18a_2'
p2573
F2.4946766666666664
sS'100_8_0__Da8a_Fa12a_12'
p2574
F0.6180783333333334
sS'30_3_0__Da8a_Fa18a_1'
p2575
F0.015392350000000001
sS'100_3_0__Da12a_Fa12a_12'
p2576
F0.18117366666666668
sS'100_3_0__Da8a_Fa24a_12'
p2577
F0.13595466666666664
sS'80_3_0_3_Da8a__2'
p2578
F0.14458183333333333
sS'80_1_0__Da4a_Fa36a_12'
p2579
F0.040458849999999998
sS'80_3_0_3_Da8a__1'
p2580
F0.31229566666666669
sS'spe10_3_0_3_Da4a_Fa36a_2'
p2581
F0.30920300000000001
sS'80_8_0__Da4a_Fa6a_12'
p2582
F0.56446300000000005
sS'80_3_0_3_Da8a__4'
p2583
F0.077983083333333328
sS'spe10_3_0_3_Da4a_Fa36a_1'
p2584
F0.6494591666666667
sS'80_3_0_3_Da8a__8'
p2585
F0.051514466666666668
sS'spe10_3_0_3_Da4a_Fa36a_8'
p2586
F0.10018178333333333
sS'80_3_0___Fa18a_12'
p2587
F0.076076516666666663
sS'30_1_0__Da8a_Fa18a_8'
p2588
F0.0024374266666666662
sS'100_8_0__Da12a_Fa6a_2'
p2589
F2.508645
sS'100_8_0__Da12a_Fa6a_1'
p2590
F4.7583116666666667
sS'30_1_0__Da8a_Fa18a_2'
p2591
F0.0071027983333333336
sS'30_1_0__Da8a_Fa18a_1'
p2592
F0.0078228016666666688
sS'100_1_0_3_Da12a__1'
p2593
F0.29985783333333332
sS'30_1_0__Da8a_Fa18a_4'
p2594
F0.0038957416666666662
sS'100_1_0__Da2a_Fa12a_8'
p2595
F0.11820583333333333
sS'100_1_0__Da2a_Fa12a_2'
p2596
F0.3317398333333334
sS'100_1_0__Da2a_Fa12a_1'
p2597
F0.2986246666666667
sS'80_1_0__Da8a_Fa6a_12'
p2598
F0.075661133333333339
sS'100_1_0__Da2a_Fa12a_4'
p2599
F0.17963466666666669
sS'100_3_0_3__Fa12a_4'
p2600
F0.15790116666666668
sS'100_3_0_3__Fa12a_2'
p2601
F0.29769133333333336
sS'100_1_0_3_Da8a_Fa24a_8'
p2602
F0.055911966666666674
sS'100_3_0_3__Fa12a_1'
p2603
F0.63249650000000002
sS'100_1_0_3_Da8a_Fa24a_4'
p2604
F0.088909850000000012
sS'30_3_0_3_Da2a_Fa12a_8'
p2605
F0.0034896700000000003
sS'100_1_0_3_Da8a_Fa24a_1'
p2606
F0.30039316666666666
sS'100_3_0_3__Fa12a_8'
p2607
F0.098678650000000021
sS'100_1_0_3_Da8a_Fa24a_2'
p2608
F0.16928816666666666
sS'80_1_0_3_Da2a_Fa36a_1'
p2609
F0.15270916666666667
sS'80_1_0_3_Da2a_Fa36a_2'
p2610
F0.088614233333333334
sS'80_1_0_3_Da2a_Fa36a_4'
p2611
F0.047644499999999999
sS'80_1_0_3_Da2a_Fa36a_8'
p2612
F0.0294595
sS'spe10_3_0__Da8a__8'
p2613
F0.22145433333333334
sS'100_8_0_3__Fa12a_4'
p2614
F1.0460133333333335
sS'80_1_0_3_Da4a__8'
p2615
F0.02870145
sS'100_1_0_3_Da2a_Fa36a_1'
p2616
F0.29778566666666667
sS'80_8_0_3_Da12a_Fa24a_12'
p2617
F0.28492400000000001
sS'30_3_0__Da4a__12'
p2618
F0.0040345300000000006
sS'80_1_0_3_Da4a__4'
p2619
F0.045414783333333326
sS'spe10_3_0__Da8a__1'
p2620
F0.65255116666666657
sS'spe10_3_0__Da8a__2'
p2621
F0.76380466666666669
sS'80_8_0__Da8a_Fa36a_4'
p2622
F0.58554950000000006
sS'spe10_3_0__Da8a__4'
p2623
F0.40343899999999994
sS'80_1_0_3_Da4a__1'
p2624
F0.15192116666666666
sS'80_1_0_3_Da4a__2'
p2625
F0.085451999999999986
sS'100_8_0_3__Fa12a_2'
p2626
F1.9776666666666669
sS'30_3_0_3_Da4a__12'
p2627
F0.0033638016666666663
sS'80_1_0_3_Da4a_Fa6a_8'
p2628
F0.039458116666666661
sS'30_8_0__Da12a_Fa6a_8'
p2629
F0.025971966666666665
sS'80_1_0_3_Da4a_Fa6a_4'
p2630
F0.047141483333333338
sS'80_1_0_3_Da4a_Fa6a_1'
p2631
F0.15424366666666667
sS'80_1_0_3_Da4a_Fa6a_2'
p2632
F0.083798350000000008
sS'30_1_0__Da12a_Fa6a_12'
p2633
F0.0043699799999999999
sS'80_3_0_3_Da12a_Fa12a_4'
p2634
F0.077195233333333335
sS'80_3_0_3_Da12a_Fa12a_1'
p2635
F0.31127216666666668
sS'80_3_0_3_Da12a_Fa12a_2'
p2636
F0.14020933333333332
sS'80_3_0_3_Da12a_Fa12a_8'
p2637
F0.053807999999999995
sS'30_1_0_3_Da12a_Fa12a_2'
p2638
F0.0044876816666666666
sS'80_1_0__Da12a_Fa6a_4'
p2639
F0.11858783333333334
sS'80_1_0__Da12a_Fa6a_2'
p2640
F0.17512216666666666
sS'30_1_0_3_Da12a_Fa12a_4'
p2641
F0.0028096849999999997
sS'80_8_0__Da2a_Fa36a_1'
p2642
F2.3998633333333337
sS'30_1_0_3_Da12a_Fa12a_8'
p2643
F0.0026903566666666664
sS'80_8_0__Da2a_Fa36a_4'
p2644
F0.62834583333333327
sS'80_1_0__Da12a_Fa6a_8'
p2645
F0.080369049999999997
sS'30_1_0___Fa12a_12'
p2646
F0.0027374400000000003
sS'30_3_0_3_Da12a_Fa12a_12'
p2647
F0.0046262249999999994
sS'30_8_0_3_Da12a__8'
p2648
F0.0289792
sS'80_8_0__Da8a_Fa12a_12'
p2649
F0.32381566666666667
sS'30_8_0_3_Da12a__4'
p2650
F0.032045366666666665
sS'30_8_0_3_Da12a__2'
p2651
F0.055318650000000004
sS'30_8_0_3_Da12a__1'
p2652
F0.12247783333333336
sS'100_3_0__Da2a__8'
p2653
F0.23026716666666666
sS'30_3_0__Da2a_Fa18a_12'
p2654
F0.0040994200000000003
sS'100_3_0__Da2a__1'
p2655
F0.63043799999999994
sS'100_3_0__Da2a__2'
p2656
F0.75952516666666658
sS'100_3_0__Da2a__4'
p2657
F0.39002183333333335
sS'100_3_0_3_Da4a_Fa18a_12'
p2658
F0.087989466666666669
sS'80_8_0__Da4a__12'
p2659
F0.2779821666666667
sS'spe10_3_0_3_Da2a_Fa6a_12'
p2660
F0.20603450000000001
sS'100_1_0_3_Da2a__8'
p2661
F0.056382700000000008
sS'30_8_0_3_Da8a__12'
p2662
F0.028645900000000002
sS'spe10_3_0__Da4a_Fa6a_8'
p2663
F0.33168916666666665
sS'100_1_0_3_Da2a__1'
p2664
F0.29812783333333331
sS'100_1_0_3_Da2a__4'
p2665
F0.092529850000000011
sS'80_8_0__Da12a_Fa18a_12'
p2666
F0.33333833333333329
sS'30_3_0_3__Fa24a_8'
p2667
F0.0030807549999999997
sS'spe10_3_0__Da4a_Fa36a_8'
p2668
F0.20448949999999999
sS'30_3_0_3__Fa24a_4'
p2669
F0.0044841500000000001
sS'100_3_0__Da4a_Fa24a_12'
p2670
F0.16141399999999997
sS'spe10_3_0__Da4a_Fa36a_4'
p2671
F0.36382166666666671
sS'spe10_3_0__Da4a_Fa36a_2'
p2672
F0.68357100000000004
sS'30_3_0_3__Fa24a_1'
p2673
F0.01549685
sS'30_3_0_3__Fa24a_2'
p2674
F0.0078459250000000019
sS'spe10_3_0__Da4a_Fa36a_1'
p2675
F0.65342083333333334
sS'80_3_0__Da4a_Fa18a_4'
p2676
F0.16464633333333334
sS'30_1_0__Da8a_Fa12a_4'
p2677
F0.0039495083333333332
sS'100_8_0_3_Da12a_Fa12a_8'
p2678
F0.66710766666666677
sS'30_1_0__Da8a_Fa12a_1'
p2679
F0.0079140083333333333
sS'80_3_0__Da4a_Fa18a_1'
p2680
F0.31437533333333334
sS'80_3_0__Da4a_Fa18a_2'
p2681
F0.30550283333333333
sS'30_1_0__Da8a_Fa12a_2'
p2682
F0.0072851549999999989
sS'100_8_0_3_Da12a_Fa12a_2'
p2683
F1.9648050000000001
sS'100_8_0_3_Da12a_Fa12a_1'
p2684
F4.7979750000000001
sS'30_8_0___Fa6a_12'
p2685
F0.027423933333333331
sS'30_1_0__Da8a_Fa12a_8'
p2686
F0.0026330183333333336
sS'100_8_0_3_Da12a_Fa12a_4'
p2687
F1.0429766666666664
sS'80_1_0_3_Da8a_Fa18a_2'
p2688
F0.084368683333333347
sS'100_1_0_3_Da4a_Fa12a_1'
p2689
F0.29957100000000003
sS'100_1_0_3_Da4a_Fa12a_2'
p2690
F0.16853716666666665
sS'80_1_0_3_Da8a_Fa18a_1'
p2691
F0.15192749999999999
sS'100_1_0_3_Da4a_Fa12a_4'
p2692
F0.088630016666666658
sS'spe10_3_0__Da12a__12'
p2693
F0.164407
sS'80_1_0_3_Da8a_Fa18a_4'
p2694
F0.04462788333333334
sS'100_8_0_3_Da2a_Fa18a_8'
p2695
F0.60925633333333329
sS'100_1_0_3_Da4a_Fa12a_8'
p2696
F0.0559722
sS'80_1_0_3_Da8a_Fa18a_8'
p2697
F0.029364566666666665
sS'100_8_0_3_Da2a_Fa18a_4'
p2698
F1.0369116666666667
sS'80_1_0_3_Da8a_Fa12a_12'
p2699
F0.030873083333333332
sS'100_8_0_3_Da2a_Fa18a_2'
p2700
F1.9771933333333331
sS'100_8_0_3_Da2a_Fa18a_1'
p2701
F4.7696149999999999
sS'spe10_3_0___Fa36a_2'
p2702
F0.60862766666666668
sS'100_3_0_3_Da2a_Fa12a_4'
p2703
F0.15612316666666667
sS'spe10_3_0__Da8a_Fa36a_8'
p2704
F0.22530216666666666
sS'spe10_3_0___Fa36a_1'
p2705
F0.65668300000000002
sS'30_8_0___Fa36a_8'
p2706
F0.017147983333333335
sS'spe10_3_0___Fa36a_4'
p2707
F0.32101133333333337
sS'spe10_3_0__Da8a_Fa36a_2'
p2708
F0.7488191666666667
sS'spe10_3_0___Fa36a_8'
p2709
F0.17486900000000002
sS'spe10_3_0__Da8a_Fa36a_1'
p2710
F0.65015650000000003
sS'100_1_0_3__Fa12a_12'
p2711
F0.052696650000000005
sS'spe10_3_0__Da8a_Fa36a_4'
p2712
F0.40155866666666667
sS'80_3_0__Da12a_Fa6a_8'
p2713
F0.14418416666666667
sS'80_8_0__Da12a_Fa6a_8'
p2714
F0.51592099999999996
sS'80_3_0__Da12a_Fa6a_1'
p2715
F0.31147533333333333
sS'80_3_0__Da12a_Fa6a_2'
p2716
F0.32987333333333335
sS'30_1_0__Da2a_Fa6a_2'
p2717
F0.0086314183333333332
sS'80_3_0__Da12a_Fa6a_4'
p2718
F0.22315783333333336
sS'80_8_0__Da12a_Fa6a_2'
p2719
F1.2810583333333332
sS'80_8_0__Da12a_Fa6a_1'
p2720
F2.3937483333333334
sS'30_3_0_3_Da4a__4'
p2721
F0.0043438600000000006
sS'30_3_0_3_Da4a__2'
p2722
F0.0074459866666666671
sS'30_3_0_3_Da4a__1'
p2723
F0.015398583333333334
sS'100_1_0__Da8a_Fa36a_4'
p2724
F0.15290116666666667
sS'100_1_0__Da8a_Fa36a_2'
p2725
F0.28879650000000001
sS'30_3_0_3_Da4a__8'
p2726
F0.0032954500000000001
sS'80_3_0__Da8a_Fa18a_12'
p2727
F0.069565483333333331
sS'30_3_0__Da2a_Fa6a_4'
p2728
F0.0094835683333333327
sS'30_3_0__Da2a_Fa6a_2'
p2729
F0.015423533333333335
sS'30_3_0__Da2a_Fa6a_1'
p2730
F0.015489849999999999
sS'100_3_0_3_Da8a_Fa12a_12'
p2731
F0.102813
sS'30_3_0__Da2a_Fa6a_8'
p2732
F0.0073787950000000005
sS'30_8_0_3_Da4a_Fa36a_8'
p2733
F0.01961415
sS'30_3_0_3__Fa24a_12'
p2734
F0.0029025933333333333
sS'30_8_0_3_Da4a_Fa36a_2'
p2735
F0.052677466666666665
sS'30_8_0__Da2a_Fa24a_12'
p2736
F0.013829166666666665
sS'30_8_0_3_Da4a_Fa36a_1'
p2737
F0.12251783333333334
sS'30_8_0_3_Da4a_Fa36a_4'
p2738
F0.029216533333333336
sS'spe10_3_0_3_Da12a_Fa36a_1'
p2739
F0.64996266666666658
sS'spe10_3_0_3_Da12a_Fa36a_2'
p2740
F0.29811816666666663
sS'spe10_3_0_3_Da12a_Fa36a_4'
p2741
F0.158441
sS'80_3_0_3_Da4a_Fa6a_4'
p2742
F0.081004283333333343
sS'spe10_3_0_3_Da12a_Fa36a_8'
p2743
F0.09938636666666667
sS'spe10_3_0_3_Da2a_Fa18a_12'
p2744
F0.10304099999999999
sS'80_8_0_3_Da2a_Fa24a_12'
p2745
F0.242614
sS'30_8_0_3___1'
p2746
F0.12228083333333334
sS'30_8_0_3___2'
p2747
F0.053212883333333329
sS'30_3_0_3_Da2a_Fa6a_2'
p2748
F0.0078793866666666667
sS'30_8_0_3___4'
p2749
F0.027790233333333331
sS'30_8_0_3___8'
p2750
F0.016981900000000005
sS'80_1_0_3_Da12a__12'
p2751
F0.026154966666666668
sS'30_3_0_3___2'
p2752
F0.0078364950000000006
sS'100_3_0__Da2a_Fa12a_1'
p2753
F0.62986866666666674
sS'100_3_0__Da2a_Fa12a_2'
p2754
F0.64467600000000003
sS'spe10_3_0_3_Da2a_Fa12a_8'
p2755
F0.122185
sS'spe10_3_0_3_Da2a_Fa12a_2'
p2756
F0.31069249999999998
sS'spe10_3_0_3_Da2a_Fa12a_1'
p2757
F0.64858566666666662
sS'spe10_3_0_3_Da2a_Fa12a_4'
p2758
F0.16470616666666668
sS'100_8_0_3_Da8a_Fa12a_12'
p2759
F0.60419599999999996
sS'80_1_0_3_Da8a_Fa12a_4'
p2760
F0.045592600000000004
sS'100_8_0_3_Da4a_Fa24a_8'
p2761
F0.6004733333333333
sS'100_8_0_3_Da4a_Fa24a_4'
p2762
F1.0255033333333334
sS'100_8_0_3_Da4a_Fa24a_2'
p2763
F1.9636250000000002
sS'100_8_0_3_Da4a_Fa24a_1'
p2764
F4.7807533333333341
sS'80_1_0_3_Da2a__12'
p2765
F0.024706083333333337
sS'spe10_3_0___Fa24a_12'
p2766
F0.13701916666666666
sS'30_8_0_3_Da2a_Fa12a_2'
p2767
F0.052946300000000002
sS'30_8_0_3_Da2a_Fa12a_1'
p2768
F0.12269516666666667
sS'100_8_0__Da4a_Fa12a_4'
p2769
F1.3599083333333333
sS'30_8_0_3_Da2a_Fa12a_4'
p2770
F0.028705850000000002
sS'30_8_0_3_Da2a_Fa12a_8'
p2771
F0.019574333333333332
sS'30_3_0_3_Da2a_Fa18a_12'
p2772
F0.0035032299999999995
sS'30_1_0_3__Fa24a_4'
p2773
F0.0027809683333333336
sS'30_1_0_3__Fa24a_2'
p2774
F0.0048728699999999988
sS'30_1_0_3__Fa24a_1'
p2775
F0.0078833833333333339
sS'30_1_0_3__Fa24a_8'
p2776
F0.0019424216666666669
sS'100_3_0_3_Da8a_Fa36a_4'
p2777
F0.15106133333333335
sS'100_3_0_3_Da8a_Fa36a_1'
p2778
F0.62716933333333336
sS'100_3_0_3_Da8a_Fa36a_2'
p2779
F0.2859551666666667
sS'100_8_0_3_Da8a_Fa36a_1'
p2780
F4.7617083333333339
sS'100_3_0_3_Da8a_Fa36a_8'
p2781
F0.097804283333333339
sS'30_1_0__Da8a_Fa12a_12'
p2782
F0.0024118333333333335
sS'80_1_0_3_Da12a_Fa6a_1'
p2783
F0.15000583333333334
sS'100_3_0___Fa18a_12'
p2784
F0.16103799999999999
sS'30_3_0__Da4a_Fa6a_1'
p2785
F0.015399966666666666
sS'30_3_0__Da4a_Fa6a_2'
p2786
F0.015825716666666666
sS'30_3_0__Da4a_Fa6a_4'
p2787
F0.010009558333333333
sS'30_3_0__Da4a_Fa6a_8'
p2788
F0.0072124149999999998
sS'spe10_3_0____8'
p2789
F0.35049016666666666
sS'30_1_0_3_Da12a_Fa24a_12'
p2790
F0.0027791466666666664
sS'spe10_3_0____1'
p2791
F0.65398816666666659
sS'spe10_3_0____2'
p2792
F1.1166383333333332
sS'spe10_3_0____4'
p2793
F0.57487049999999995
sS'30_8_0__Da2a_Fa24a_2'
p2794
F0.057790299999999996
sS'100_8_0__Da8a__8'
p2795
F0.64737249999999991
sS'80_1_0_3_Da12a_Fa6a_8'
p2796
F0.041631700000000001
sS'100_8_0__Da8a__2'
p2797
F2.2148500000000002
sS'100_8_0__Da8a__1'
p2798
F4.7711416666666668
sS'100_8_0__Da8a__4'
p2799
F1.1457366666666666
sS'30_3_0__Da12a_Fa36a_4'
p2800
F0.0077928399999999997
sS'30_3_0__Da12a_Fa36a_1'
p2801
F0.015466566666666667
sS'30_3_0__Da12a_Fa36a_2'
p2802
F0.014531299999999999
sS'30_3_0__Da12a_Fa36a_8'
p2803
F0.0046702050000000002
sS'80_3_0__Da8a_Fa6a_8'
p2804
F0.13132316666666666
sS'80_3_0__Da8a_Fa6a_2'
p2805
F0.29080916666666667
sS'100_3_0__Da4a_Fa36a_12'
p2806
F0.15433283333333334
sS'80_3_0__Da8a_Fa6a_1'
p2807
F0.31098483333333332
sS'80_3_0__Da8a_Fa6a_4'
p2808
F0.16752733333333333
sS'100_8_0_3_Da2a_Fa12a_1'
p2809
F4.7745066666666665
sS'80_1_0_3_Da2a_Fa12a_2'
p2810
F0.08882781666666667
sS'100_8_0_3_Da2a_Fa12a_2'
p2811
F1.9778816666666668
sS'100_8_0_3_Da2a_Fa12a_4'
p2812
F1.0479633333333334
sS'80_3_0_3_Da2a_Fa6a_12'
p2813
F0.075449349999999998
sS'100_8_0_3_Da2a_Fa12a_8'
p2814
F0.62205633333333332
sS'100_8_0__Da8a_Fa18a_8'
p2815
F0.68778266666666665
sS'100_8_0_3_Da12a_Fa6a_4'
p2816
F1.0785483333333334
sS'100_3_0__Da4a_Fa18a_12'
p2817
F0.17601549999999999
sS'80_1_0_3_Da2a_Fa12a_1'
p2818
F0.15142849999999999
sS'100_8_0___Fa36a_2'
p2819
F2.5004499999999998
sS'100_8_0___Fa36a_1'
p2820
F4.769216666666666
sS'100_8_0___Fa36a_8'
p2821
F0.74048416666666661
sS'80_1_0_3_Da2a_Fa12a_4'
p2822
F0.047865700000000004
sS'100_1_0_3__Fa18a_8'
p2823
F0.05640821666666667
sS'100_1_0_3__Fa18a_4'
p2824
F0.09442858333333333
sS'100_1_0_3__Fa18a_2'
p2825
F0.17664416666666663
sS'100_1_0_3__Fa18a_1'
p2826
F0.29504649999999999
sS'30_3_0_3_Da4a_Fa24a_8'
p2827
F0.0033356366666666662
sS'100_8_0__Da8a_Fa18a_1'
p2828
F4.796405
sS'30_3_0_3_Da4a_Fa24a_1'
p2829
F0.015505516666666668
sS'30_3_0_3_Da4a_Fa24a_2'
p2830
F0.0073427266666666663
sS'30_3_0_3_Da4a_Fa24a_4'
p2831
F0.004385155
sS'80_1_0_3_Da2a_Fa12a_8'
p2832
F0.030161016666666669
sS'80_8_0_3_Da4a_Fa18a_1'
p2833
F2.3977249999999999
sS'100_8_0_3__Fa6a_8'
p2834
F0.84245733333333339
sS'80_8_0_3__Fa24a_12'
p2835
F0.23721483333333335
sS'80_8_0_3_Da4a_Fa18a_2'
p2836
F1.0078533333333333
sS'100_1_0___Fa36a_2'
p2837
F0.32159366666666667
sS'80_8_0_3_Da4a_Fa18a_4'
p2838
F0.52713900000000002
sS'80_3_0_3_Da12a_Fa18a_12'
p2839
F0.049625616666666671
sS'100_1_0___Fa36a_1'
p2840
F0.2969195
sS'100_3_0_3__Fa24a_4'
p2841
F0.15755116666666666
sS'80_8_0_3_Da4a_Fa18a_8'
p2842
F0.31187150000000002
sS'100_8_0_3__Fa6a_2'
p2843
F2.0057666666666667
sS'100_8_0_3__Fa6a_4'
p2844
F1.0883283333333333
sS'100_1_0___Fa36a_8'
p2845
F0.096788033333333343
sS'100_1_0_3_Da2a_Fa6a_8'
p2846
F0.080469566666666673
sS'80_3_0___Fa18a_4'
p2847
F0.15616683333333334
sS'100_1_0_3_Da2a_Fa6a_2'
p2848
F0.17995849999999999
sS'100_1_0_3_Da2a_Fa6a_1'
p2849
F0.30086399999999996
sS'spe10_3_0_3_Da4a_Fa6a_12'
p2850
F0.19686133333333336
sS'100_1_0_3_Da2a_Fa6a_4'
p2851
F0.097255516666666667
sS'100_3_0_3_Da12a_Fa6a_4'
p2852
F0.15900899999999998
sS'30_8_0__Da8a_Fa12a_8'
p2853
F0.017535899999999997
sS'100_3_0_3_Da12a_Fa6a_1'
p2854
F0.63198683333333339
sS'100_3_0_3_Da12a_Fa6a_2'
p2855
F0.28556483333333332
sS'30_8_0__Da8a_Fa12a_4'
p2856
F0.028994250000000003
sS'100_3_0_3_Da12a_Fa6a_8'
p2857
F0.13915383333333334
sS'30_8_0__Da8a_Fa12a_1'
p2858
F0.12227333333333333
sS'30_8_0__Da8a_Fa12a_2'
p2859
F0.055431866666666663
sS'30_1_0_3_Da12a_Fa24a_4'
p2860
F0.0028316333333333332
sS'80_3_0_3_Da12a_Fa24a_12'
p2861
F0.048365699999999991
sS'30_1_0_3_Da12a_Fa24a_2'
p2862
F0.0044402799999999996
sS'100_1_0_3_Da8a_Fa18a_8'
p2863
F0.056607016666666655
sS'30_1_0_3_Da12a_Fa24a_1'
p2864
F0.0078816466666666671
sS'100_1_0_3_Da8a_Fa18a_4'
p2865
F0.089106583333333336
sS'100_1_0_3_Da8a_Fa18a_2'
p2866
F0.16970200000000002
sS'30_1_0_3_Da12a_Fa24a_8'
p2867
F0.0027126699999999999
sS'100_1_0_3_Da8a_Fa18a_1'
p2868
F0.29859333333333338
sS'80_1_0__Da4a_Fa18a_2'
p2869
F0.165211
sS'80_1_0__Da4a_Fa18a_1'
p2870
F0.15223899999999999
sS'100_3_0_3__Fa24a_2'
p2871
F0.29713050000000002
sS'80_1_0__Da4a_Fa18a_4'
p2872
F0.088598933333333338
sS'80_1_0__Da4a_Fa18a_8'
p2873
F0.054022433333333335
sS'100_8_0_3_Da12a_Fa36a_12'
p2874
F0.54510000000000003
sS'80_1_0__Da2a_Fa18a_12'
p2875
F0.042862666666666667
sS'30_8_0__Da8a_Fa36a_12'
p2876
F0.0129368
sS'100_3_0__Da12a_Fa24a_4'
p2877
F0.3499815
sS'100_3_0__Da12a_Fa24a_1'
p2878
F0.63085016666666671
sS'spe10_3_0_3_Da8a_Fa12a_1'
p2879
F0.64946233333333336
sS'100_8_0_3_Da12a_Fa18a_12'
p2880
F0.56483566666666662
sS'80_8_0_3_Da2a_Fa6a_12'
p2881
F0.47016883333333337
sS'30_3_0__Da8a_Fa24a_12'
p2882
F0.0033797966666666659
sS'30_1_0__Da2a_Fa12a_8'
p2883
F0.0030892183333333331
sS'30_1_0__Da2a_Fa12a_2'
p2884
F0.0080979216666666673
sS'30_1_0__Da2a_Fa12a_1'
p2885
F0.0078962233333333322
sS'30_1_0__Da2a_Fa12a_4'
p2886
F0.0045707650000000001
sS'80_1_0__Da12a_Fa36a_4'
p2887
F0.089382400000000015
sS'100_1_0__Da4a_Fa24a_4'
p2888
F0.18536666666666668
sS'100_1_0__Da2a__12'
p2889
F0.1315385
sS'80_3_0__Da4a_Fa24a_4'
p2890
F0.163521
sS'100_1_0__Da4a_Fa24a_1'
p2891
F0.30064833333333335
sS'80_1_0__Da12a_Fa36a_1'
p2892
F0.15267849999999999
sS'80_1_0__Da12a_Fa36a_2'
p2893
F0.16779149999999998
sS'100_1_0__Da4a_Fa24a_2'
p2894
F0.34774033333333332
sS'100_3_0_3_Da2a_Fa6a_12'
p2895
F0.14833333333333334
sS'80_1_0__Da12a_Fa36a_8'
p2896
F0.05133795
sS'100_1_0__Da4a_Fa24a_8'
p2897
F0.11100683333333333
sS'80_3_0__Da4a_Fa24a_8'
p2898
F0.094714316666666673
sS'100_3_0_3__Fa36a_4'
p2899
F0.15688750000000004
sS'100_3_0_3__Fa36a_1'
p2900
F0.63576900000000003
sS'100_3_0_3__Fa36a_2'
p2901
F0.29886200000000002
sS'80_1_0__Da12a_Fa12a_12'
p2902
F0.04895303333333334
sS'100_3_0_3__Fa36a_8'
p2903
F0.097414333333333339
sS'80_8_0_3_Da12a__12'
p2904
F0.28487983333333333
sS'30_8_0__Da4a_Fa18a_2'
p2905
F0.058415166666666664
sS'80_8_0_3_Da12a_Fa18a_4'
p2906
F0.54228216666666673
sS'30_8_0__Da4a_Fa18a_1'
p2907
F0.12306066666666667
sS'80_8_0_3_Da12a_Fa18a_1'
p2908
F2.3986750000000003
sS'100_1_0_3_Da12a_Fa6a_12'
p2909
F0.084163283333333325
sS'30_8_0__Da4a_Fa18a_4'
p2910
F0.030757033333333336
sS'80_8_0_3_Da12a_Fa18a_2'
p2911
F1.0077916666666666
sS'30_8_0__Da4a_Fa18a_8'
p2912
F0.0183048
sS'80_8_0_3_Da12a_Fa18a_8'
p2913
F0.33566216666666665
sS'100_3_0_3_Da4a__8'
p2914
F0.094562099999999996
sS'30_3_0_3_Da4a_Fa36a_2'
p2915
F0.0073645199999999994
sS'30_3_0_3_Da4a_Fa36a_1'
p2916
F0.015503883333333334
sS'30_3_0_3_Da12a__12'
p2917
F0.0046277849999999997
sS'30_3_0_3_Da4a_Fa36a_4'
p2918
F0.0043350483333333334
sS'80_1_0_3__Fa18a_2'
p2919
F0.088991266666666666
sS'80_3_0_3_Da4a_Fa24a_12'
p2920
F0.044398050000000001
sS'80_1_0_3__Fa18a_1'
p2921
F0.150755
sS'80_1_0_3__Fa18a_4'
p2922
F0.047689483333333338
sS'30_1_0_3_Da4a_Fa24a_8'
p2923
F0.0020847583333333335
sS'30_1_0_3_Da2a_Fa36a_4'
p2924
F0.0027976049999999999
sS'30_1_0_3_Da2a_Fa36a_2'
p2925
F0.004861415
sS'30_1_0_3_Da2a_Fa36a_1'
p2926
F0.0078525283333333324
sS'30_1_0_3_Da4a_Fa24a_2'
p2927
F0.0045751049999999994
sS'100_8_0__Da2a_Fa18a_4'
p2928
F1.3103016666666667
sS'30_1_0_3_Da4a_Fa24a_1'
p2929
F0.0077712783333333327
sS'100_8_0__Da2a_Fa18a_1'
p2930
F4.7782150000000003
sS'30_1_0_3_Da4a_Fa24a_4'
p2931
F0.0027380183333333332
sS'30_1_0_3_Da2a_Fa36a_8'
p2932
F0.0021440450000000002
sS'30_1_0_3_Da4a_Fa18a_1'
p2933
F0.0078232616666666661
sS'30_1_0_3_Da4a_Fa18a_2'
p2934
F0.0046130900000000002
sS'30_1_0_3_Da4a_Fa18a_4'
p2935
F0.0027050633333333333
sS'30_1_0_3_Da4a_Fa18a_8'
p2936
F0.0020461883333333327
sS'30_3_0_3_Da2a_Fa6a_12'
p2937
F0.0048870683333333336
sS'80_8_0_3_Da4a_Fa24a_12'
p2938
F0.24929900000000002
sS'spe10_3_0__Da12a_Fa24a_12'
p2939
F0.19525049999999999
sS'100_1_0__Da2a_Fa24a_8'
p2940
F0.10147808333333334
sS'100_1_0__Da2a_Fa24a_4'
p2941
F0.17320150000000001
sS'100_1_0__Da2a_Fa24a_2'
p2942
F0.32913899999999996
sS'100_1_0__Da2a_Fa24a_1'
p2943
F0.29841966666666669
sS'30_1_0__Da12a_Fa24a_8'
p2944
F0.0028439783333333336
sS'80_3_0_3_Da8a_Fa24a_2'
p2945
F0.14384333333333335
sS'30_1_0_3__Fa6a_8'
p2946
F0.002730393333333333
sS'30_1_0__Da12a_Fa24a_1'
p2947
F0.0078035566666666669
sS'30_1_0__Da12a_Fa24a_2'
p2948
F0.0083970216666666674
sS'30_1_0__Da12a_Fa24a_4'
p2949
F0.0045919433333333334
sS'30_8_0_3_Da2a_Fa6a_8'
p2950
F0.026874066666666668
sS'100_3_0_3_Da2a_Fa12a_8'
p2951
F0.099544683333333328
sS'30_1_0_3_Da4a__12'
p2952
F0.002080093333333333
sS'30_8_0_3_Da2a_Fa6a_2'
p2953
F0.053057066666666673
sS'30_8_0_3_Da2a_Fa6a_1'
p2954
F0.12275799999999999
sS'100_3_0_3_Da2a_Fa12a_1'
p2955
F0.63013600000000003
sS'30_8_0_3_Da2a_Fa6a_4'
p2956
F0.029700883333333334
sS'30_3_0_3_Da8a_Fa12a_12'
p2957
F0.0046214683333333341
sS'30_1_0_3_Da8a__1'
p2958
F0.0077925000000000008
sS'100_8_0_3_Da4a_Fa12a_4'
p2959
F1.0377216666666667
sS'100_3_0__Da2a_Fa12a_8'
p2960
F0.222444
sS'30_1_0____8'
p2961
F0.0064186099999999991
sS'100_3_0__Da2a_Fa12a_4'
p2962
F0.35132566666666665
sS'30_1_0____4'
p2963
F0.009114955000000001
sS'30_1_0____2'
p2964
F0.014198166666666666
sS'30_1_0____1'
p2965
F0.0078458716666666654
sS'spe10_3_0_3___8'
p2966
F0.11120166666666666
sS'100_3_0_3_Da12a_Fa18a_12'
p2967
F0.095573033333333335
sS'80_8_0_3_Da8a_Fa18a_2'
p2968
F1.0247216666666668
sS'100_3_0___Fa36a_8'
p2969
F0.18083400000000002
sS'spe10_3_0__Da2a_Fa6a_12'
p2970
F0.34679533333333334
sS'80_1_0_3_Da4a_Fa36a_12'
p2971
F0.024898816666666667
sS'80_8_0___Fa12a_12'
p2972
F0.34985266666666665
sS'100_1_0_3_Da4a__8'
p2973
F0.055139999999999995
sS'100_1_0_3_Da4a__4'
p2974
F0.089682633333333331
sS'100_1_0_3_Da4a__1'
p2975
F0.29814200000000002
sS'100_1_0_3_Da4a__2'
p2976
F0.16638783333333332
sS'spe10_3_0_3_Da8a_Fa12a_8'
p2977
F0.1168245
sS'30_8_0__Da8a_Fa24a_8'
p2978
F0.016867216666666667
sS'80_3_0_3_Da2a_Fa24a_8'
p2979
F0.049552733333333328
sS'30_8_0__Da8a_Fa24a_4'
p2980
F0.029121600000000001
sS'spe10_3_0_3_Da8a_Fa12a_2'
p2981
F0.29931433333333329
sS'30_8_0__Da8a_Fa24a_1'
p2982
F0.1224575
sS'30_8_0__Da8a_Fa24a_2'
p2983
F0.055771516666666666
sS'80_8_0_3_Da2a_Fa36a_4'
p2984
F0.53328083333333332
sS'80_8_0_3_Da2a_Fa36a_2'
p2985
F1.0291066666666666
sS'80_8_0_3_Da2a_Fa36a_1'
p2986
F2.3910416666666667
sS'80_8_0_3_Da2a_Fa36a_8'
p2987
F0.31002449999999998
sS'30_8_0_3_Da4a_Fa12a_12'
p2988
F0.020075533333333336
sS'80_3_0__Da2a_Fa12a_12'
p2989
F0.090128933333333341
sS'30_8_0__Da2a_Fa18a_8'
p2990
F0.017818383333333333
sS'100_3_0__Da4a_Fa12a_4'
p2991
F0.37208099999999994
sS'30_8_0__Da2a_Fa18a_4'
p2992
F0.030352600000000004
sS'80_3_0_3_Da4a_Fa36a_8'
p2993
F0.049097750000000003
sS'30_3_0___Fa36a_12'
p2994
F0.0035976033333333327
sS'30_8_0__Da2a_Fa18a_1'
p2995
F0.12361983333333333
sS'30_8_0__Da2a_Fa18a_2'
p2996
F0.057690916666666668
sS'100_1_0_3___12'
p2997
F0.048484233333333342
sS'30_8_0_3_Da8a_Fa36a_12'
p2998
F0.028629249999999998
sS'80_1_0_3_Da12a_Fa36a_1'
p2999
F0.15077283333333333
sS'80_1_0_3_Da12a_Fa36a_2'
p3000
F0.082444683333333338
s.