(dp0
S'30_8_0_3_Da12a_Fa36a_8'
p1
F0.083105150000000003
sS'80_1_0__Da4a_Fa6a_8'
p2
F0.14062450000000001
sS'80_3_0__Da2a_Fa24a_2'
p3
F0.85536333333333336
sS'80_3_0__Da4a_Fa18a_12'
p4
F0.27961249999999999
sS'30_1_0_3_Da4a__8'
p5
F0.0028878549999999999
sS'30_1_0_3_Da4a__4'
p6
F0.0033036983333333335
sS'30_8_0_3_Da12a_Fa36a_2'
p7
F0.10309900000000001
sS'30_1_0_3_Da4a__1'
p8
F0.0037881983333333332
sS'80_1_0_3__Fa18a_12'
p9
F0.051745316666666673
sS'30_1_0_3_Da4a__2'
p10
F0.0050445616666666667
sS'80_8_0__Da2a_Fa24a_12'
p11
F1.1866166666666667
sS'100_8_0__Da8a_Fa36a_8'
p12
F2.420973333333333
sS'80_1_0_3_Da4a_Fa24a_8'
p13
F0.04789645
sS'100_8_0_3_Da8a__8'
p14
F1.9145016666666665
sS'100_8_0_3_Da8a__1'
p15
F5.9400783333333331
sS'100_8_0_3_Da8a__2'
p16
F3.3529533333333332
sS'100_8_0_3_Da8a__4'
p17
F2.2008083333333333
sS'30_8_0_3_Da8a__8'
p18
F0.080833416666666671
sS'80_1_0_3_Da8a_Fa6a_1'
p19
F0.075042049999999999
sS'80_1_0_3_Da8a_Fa6a_2'
p20
F0.085228466666666669
sS'80_3_0_3___1'
p21
F0.32861000000000001
sS'80_1_0_3_Da8a_Fa6a_4'
p22
F0.060868900000000004
sS'80_8_0_3_Da4a_Fa24a_4'
p23
F1.1164099999999999
sS'80_3_0_3___4'
p24
F0.20832733333333331
sS'30_8_0_3_Da12a_Fa36a_1'
p25
F0.17219416666666665
sS'80_1_0_3_Da8a_Fa6a_8'
p26
F0.060506866666666666
sS'30_8_0_3_Da8a__1'
p27
F0.17108633333333334
sS'30_8_0_3_Da8a__2'
p28
F0.10535750000000001
sS'30_8_0_3_Da8a__4'
p29
F0.077137999999999998
sS'80_1_0__Da4a_Fa6a_2'
p30
F0.2850375
sS'80_3_0_3_Da4a_Fa6a_12'
p31
F0.22909166666666667
sS'spe10_3_0_3_Da2a_Fa36a_8'
p32
F1.105945
sS'spe10_3_0_3_Da2a_Fa36a_1'
p33
F2.1034733333333331
sS'spe10_3_0_3_Da2a_Fa36a_2'
p34
F2.1381216666666667
sS'spe10_3_0_3_Da2a_Fa36a_4'
p35
F1.4021416666666668
sS'80_3_0_3_Da12a_Fa6a_12'
p36
F0.22738549999999999
sS'100_8_0_3__Fa24a_8'
p37
F1.85253
sS'30_3_0__Da12a_Fa36a_12'
p38
F0.017877866666666669
sS'100_8_0_3__Fa24a_2'
p39
F3.4861649999999997
sS'30_1_0_3_Da8a_Fa6a_12'
p40
F0.0037469366666666669
sS'100_8_0__Da8a_Fa12a_4'
p41
F3.8343900000000004
sS'100_8_0_3__Fa24a_4'
p42
F2.2428966666666668
sS'80_8_0__Da4a_Fa12a_1'
p43
F3.0246183333333332
sS'80_8_0_3_Da2a_Fa18a_12'
p44
F0.97346983333333326
sS'30_1_0_3__Fa36a_4'
p45
F0.00495094
sS'30_1_0_3__Fa36a_1'
p46
F0.0037802249999999999
sS'30_1_0_3__Fa36a_2'
p47
F0.0079198166666666677
sS'100_8_0_3_Da2a_Fa6a_12'
p48
F2.8490566666666663
sS'30_1_0_3__Fa36a_8'
p49
F0.0037233833333333334
sS'100_1_0__Da12a_Fa18a_12'
p50
F0.18080066666666664
sS'spe10_3_0_3_Da2a_Fa6a_8'
p51
F1.6618516666666665
sS'30_3_0____12'
p52
F0.098759433333333327
sS'spe10_3_0_3_Da4a__8'
p53
F1.101275
sS'spe10_3_0_3_Da4a__4'
p54
F1.3759883333333331
sS'spe10_3_0_3_Da2a_Fa6a_1'
p55
F2.0812766666666671
sS'spe10_3_0_3_Da4a__1'
p56
F2.1036300000000003
sS'spe10_3_0_3_Da2a_Fa6a_4'
p57
F1.4980849999999999
sS'30_1_0__Da2a__4'
p58
F0.033632616666666663
sS'30_1_0__Da2a__1'
p59
F0.0037616883333333336
sS'30_1_0__Da2a__2'
p60
F0.045048766666666663
sS'30_1_0__Da2a__8'
p61
F0.025885983333333331
sS'100_1_0_3_Da8a_Fa12a_12'
p62
F0.097830233333333336
sS'30_3_0___Fa12a_12'
p63
F0.019845833333333333
sS'100_8_0__Da8a_Fa12a_1'
p64
F5.9586116666666671
sS'100_8_0_3__Fa12a_8'
p65
F1.9533483333333335
sS'spe10_3_0_3_Da8a_Fa36a_2'
p66
F1.8981516666666665
sS'30_1_0__Da12a__12'
p67
F0.0069243433333333326
sS'spe10_3_0_3_Da8a_Fa36a_1'
p68
F2.119121666666667
sS'30_8_0___Fa12a_1'
p69
F0.17200166666666664
sS'spe10_3_0_3_Da8a_Fa36a_4'
p70
F1.2960233333333333
sS'30_8_0_3___12'
p71
F0.059594150000000005
sS'spe10_3_0_3_Da8a_Fa36a_8'
p72
F1.0754233333333332
sS'100_8_0_3_Da8a__12'
p73
F1.9380916666666668
sS'30_1_0__Da2a_Fa24a_2'
p74
F0.013839083333333333
sS'30_1_0__Da2a_Fa24a_1'
p75
F0.0037755716666666669
sS'spe10_3_0_3_Da8a__1'
p76
F2.0867466666666665
sS'spe10_3_0_3_Da8a__2'
p77
F1.9035816666666667
sS'spe10_3_0_3_Da8a__4'
p78
F1.2943149999999999
sS'spe10_3_0_3_Da8a__8'
p79
F1.0734083333333333
sS'80_3_0_3_Da12a__8'
p80
F0.16053966666666666
sS'30_1_0__Da8a_Fa36a_8'
p81
F0.0044941799999999995
sS'80_3_0_3_Da12a__1'
p82
F0.32840550000000002
sS'80_3_0_3_Da12a__2'
p83
F0.24102633333333331
sS'30_1_0__Da8a_Fa36a_4'
p84
F0.0063315383333333334
sS'80_3_0_3_Da12a__4'
p85
F0.17801733333333333
sS'30_1_0__Da8a_Fa36a_2'
p86
F0.0098320916666666675
sS'30_1_0__Da8a_Fa36a_1'
p87
F0.0037790566666666674
sS'100_3_0__Da4a_Fa24a_8'
p88
F0.61199466666666669
sS'30_1_0_3_Da8a_Fa12a_8'
p89
F0.0034840050000000001
sS'100_1_0_3__Fa24a_1'
p90
F0.14925066666666664
sS'100_3_0__Da4a_Fa24a_1'
p91
F0.64607066666666668
sS'spe10_3_0_3__Fa24a_12'
p92
F1.0965833333333335
sS'30_1_0_3_Da8a_Fa12a_2'
p93
F0.0047451033333333328
sS'30_1_0_3_Da8a_Fa12a_1'
p94
F0.0036966083333333333
sS'100_3_0__Da4a_Fa24a_4'
p95
F1.0007108333333332
sS'80_3_0___Fa18a_8'
p96
F0.29206966666666667
sS'80_3_0___Fa18a_1'
p97
F0.32875633333333337
sS'spe10_3_0__Da12a_Fa12a_12'
p98
F1.8555700000000002
sS'spe10_3_0_3_Da4a__12'
p99
F1.0621449999999999
sS'100_3_0_3_Da4a_Fa18a_8'
p100
F0.3072955
sS'80_1_0_3_Da8a__8'
p101
F0.049018383333333332
sS'80_8_0__Da12a_Fa12a_2'
p102
F3.6354666666666664
sS'80_8_0__Da12a_Fa12a_4'
p103
F2.1272966666666666
sS'80_1_0_3_Da8a__1'
p104
F0.075113400000000011
sS'80_1_0_3_Da8a__2'
p105
F0.085873599999999994
sS'80_1_0_3_Da8a__4'
p106
F0.058526116666666662
sS'80_3_0_3___2'
p107
F0.30609016666666666
sS'30_8_0_3_Da12a_Fa12a_8'
p108
F0.083204550000000002
sS'80_8_0__Da8a__8'
p109
F1.30338
sS'30_8_0_3_Da12a_Fa12a_2'
p110
F0.10321666666666666
sS'30_8_0_3_Da12a_Fa12a_1'
p111
F0.17094549999999997
sS'80_8_0__Da8a__2'
p112
F3.4730116666666664
sS'30_8_0_3_Da12a_Fa12a_4'
p113
F0.07774576666666666
sS'100_8_0_3_Da8a_Fa18a_1'
p114
F5.9533450000000014
sS'80_3_0_3_Da12a_Fa24a_4'
p115
F0.17807999999999999
sS'100_8_0_3_Da8a_Fa18a_2'
p116
F3.3400016666666663
sS'80_3_0_3_Da12a_Fa24a_1'
p117
F0.3284941666666667
sS'100_8_0_3_Da8a_Fa18a_4'
p118
F2.2097466666666663
sS'80_3_0_3_Da12a_Fa24a_2'
p119
F0.24098699999999998
sS'100_8_0_3_Da8a_Fa18a_8'
p120
F1.9379383333333331
sS'80_3_0_3_Da12a_Fa24a_8'
p121
F0.1607118333333333
sS'100_3_0_3_Da4a_Fa18a_1'
p122
F0.64543233333333339
sS'spe10_3_0____12'
p123
F10.906316666666667
sS'100_3_0_3_Da4a_Fa18a_2'
p124
F0.49991399999999997
sS'spe10_3_0__Da8a_Fa36a_12'
p125
F1.7026000000000001
sS'100_3_0__Da2a__12'
p126
F1.4806150000000002
sS'100_3_0__Da8a_Fa18a_12'
p127
F0.43066749999999998
sS'80_3_0_3___8'
p128
F0.17119433333333334
sS'spe10_3_0_3__Fa36a_8'
p129
F1.09917
sS'80_3_0_3_Da12a_Fa36a_12'
p130
F0.16509316666666665
sS'30_8_0_3_Da8a_Fa6a_12'
p131
F0.094947266666666655
sS'spe10_3_0_3__Fa36a_1'
p132
F2.0842849999999999
sS'spe10_3_0_3__Fa36a_4'
p133
F1.3990216666666668
sS'80_3_0___Fa24a_12'
p134
F0.23944716666666668
sS'80_1_0__Da4a_Fa6a_12'
p135
F0.15610216666666668
sS'80_8_0_3_Da12a_Fa18a_12'
p136
F1.0585033333333334
sS'80_8_0_3__Fa6a_1'
p137
F3.0314433333333333
sS'80_8_0_3__Fa6a_2'
p138
F1.7890866666666667
sS'80_8_0_3__Fa6a_4'
p139
F1.2474716666666665
sS'spe10_3_0_3__Fa18a_1'
p140
F2.0817400000000004
sS'80_1_0_3_Da4a_Fa18a_2'
p141
F0.090483500000000008
sS'100_8_0__Da12a_Fa6a_12'
p142
F4.3456099999999998
sS'30_1_0_3_Da2a_Fa12a_12'
p143
F0.0037315716666666671
sS'30_3_0__Da2a_Fa24a_8'
p144
F0.020920316666666671
sS'80_8_0__Da8a_Fa6a_12'
p145
F2.0286650000000002
sS'30_3_0__Da2a_Fa24a_1'
p146
F0.019325416666666668
sS'30_3_0__Da2a_Fa24a_2'
p147
F0.054648666666666672
sS'80_1_0_3_Da4a_Fa18a_1'
p148
F0.076256983333333347
sS'30_8_0___Fa12a_12'
p149
F0.079731266666666675
sS'100_3_0__Da2a_Fa36a_4'
p150
F0.95084516666666674
sS'100_3_0__Da2a_Fa36a_2'
p151
F1.721535
sS'100_3_0__Da2a_Fa36a_1'
p152
F0.64531133333333335
sS'100_3_0__Da2a_Fa36a_8'
p153
F0.57057983333333329
sS'30_8_0__Da12a_Fa36a_4'
p154
F0.11204716666666666
sS'100_3_0____1'
p155
F0.64520849999999996
sS'spe10_3_0__Da2a_Fa36a_12'
p156
F1.517566666666667
sS'30_8_0__Da12a_Fa36a_1'
p157
F0.17086799999999999
sS'30_8_0__Da12a_Fa36a_2'
p158
F0.19375299999999998
sS'100_3_0____8'
p159
F3.6852549999999997
sS'30_8_0__Da12a_Fa36a_8'
p160
F0.07731321666666667
sS'30_3_0__Da2a_Fa24a_12'
p161
F0.018345450000000003
sS'30_3_0__Da8a_Fa12a_2'
p162
F0.044984583333333335
sS'30_3_0__Da8a_Fa12a_1'
p163
F0.01929525
sS'30_3_0__Da8a_Fa12a_4'
p164
F0.025934250000000002
sS'80_1_0__Da8a_Fa12a_12'
p165
F0.077277899999999997
sS'30_3_0__Da8a_Fa12a_8'
p166
F0.017450199999999999
sS'80_3_0__Da8a__8'
p167
F0.35901350000000004
sS'80_3_0__Da8a__2'
p168
F0.96180866666666676
sS'80_3_0__Da8a__1'
p169
F0.32842500000000002
sS'80_3_0__Da8a__4'
p170
F0.56487083333333332
sS'80_3_0__Da2a_Fa6a_12'
p171
F0.44882233333333338
sS'80_8_0__Da2a_Fa12a_8'
p172
F1.5066416666666667
sS'100_3_0__Da12a_Fa6a_4'
p173
F1.223115
sS'100_1_0_3_Da2a_Fa36a_4'
p174
F0.13583299999999998
sS'80_8_0__Da2a_Fa12a_2'
p175
F3.5745283333333333
sS'80_8_0__Da2a_Fa12a_1'
p176
F3.0371250000000001
sS'80_3_0__Da12a_Fa24a_12'
p177
F0.26111849999999998
sS'80_8_0__Da2a_Fa12a_4'
p178
F2.0371366666666666
sS'80_8_0_3___8'
p179
F0.94985149999999996
sS'30_3_0_3_Da8a__8'
p180
F0.0138709
sS'30_8_0_3_Da2a_Fa18a_8'
p181
F0.065315949999999998
sS'30_8_0_3_Da2a_Fa18a_4'
p182
F0.071487250000000002
sS'30_3_0_3_Da8a__2'
p183
F0.016867050000000001
sS'30_3_0_3_Da8a__1'
p184
F0.019430566666666666
sS'80_8_0_3___2'
p185
F1.8144033333333336
sS'30_8_0_3_Da2a_Fa18a_1'
p186
F0.17174416666666667
sS'30_8_0_3_Da2a_Fa18a_2'
p187
F0.10664133333333332
sS'30_3_0_3_Da8a__4'
p188
F0.0132722
sS'30_8_0___Fa6a_4'
p189
F0.12229350000000001
sS'80_1_0__Da2a_Fa18a_8'
p190
F0.091556399999999996
sS'30_8_0___Fa6a_1'
p191
F0.17103599999999999
sS'30_8_0___Fa6a_2'
p192
F0.19181566666666669
sS'80_1_0__Da2a_Fa18a_4'
p193
F0.14176999999999998
sS'30_8_0___Fa6a_8'
p194
F0.10657533333333334
sS'80_1_0__Da2a_Fa18a_1'
p195
F0.075351133333333334
sS'80_1_0__Da2a_Fa18a_2'
p196
F0.25332983333333331
sS'80_3_0__Da4a_Fa24a_1'
p197
F0.32848816666666664
sS'100_8_0__Da8a_Fa6a_4'
p198
F4.2917949999999996
sS'spe10_3_0_3__Fa36a_12'
p199
F1.0448333333333333
sS'30_3_0__Da8a_Fa36a_12'
p200
F0.0143106
sS'30_1_0_3_Da12a__12'
p201
F0.0033053533333333336
sS'30_1_0__Da4a_Fa18a_12'
p202
F0.00652886
sS'80_8_0_3_Da12a_Fa36a_8'
p203
F1.0023346666666668
sS'100_1_0_3_Da4a__12'
p204
F0.087603550000000016
sS'100_3_0__Da2a_Fa36a_12'
p205
F0.45957883333333333
sS'100_1_0__Da4a_Fa18a_12'
p206
F0.18095483333333337
sS'80_1_0_3_Da8a_Fa24a_12'
p207
F0.049591466666666667
sS'spe10_3_0___Fa18a_8'
p208
F1.8468533333333335
sS'100_3_0_3_Da4a_Fa36a_8'
p209
F0.30583283333333333
sS'spe10_3_0___Fa18a_4'
p210
F3.041655
sS'spe10_3_0___Fa18a_2'
p211
F5.5696583333333329
sS'spe10_3_0___Fa18a_1'
p212
F2.087475
sS'100_1_0_3___8'
p213
F0.1099835
sS'100_1_0_3_Da12a_Fa6a_2'
p214
F0.15012
sS'30_3_0__Da12a_Fa6a_12'
p215
F0.0276005
sS'30_8_0_3_Da8a_Fa12a_8'
p216
F0.080687416666666664
sS'100_8_0_3_Da2a_Fa24a_1'
p217
F5.951481666666667
sS'100_8_0_3_Da2a_Fa24a_2'
p218
F3.5008316666666666
sS'30_8_0_3_Da8a_Fa12a_4'
p219
F0.076951900000000004
sS'100_1_0_3___1'
p220
F0.14826933333333334
sS'100_1_0_3___2'
p221
F0.24886783333333337
sS'100_1_0_3___4'
p222
F0.15270466666666668
sS'30_8_0_3_Da8a_Fa12a_1'
p223
F0.17081033333333331
sS'30_8_0_3_Da8a_Fa12a_2'
p224
F0.10538266666666667
sS'30_1_0___Fa24a_12'
p225
F0.0061751416666666675
sS'100_8_0__Da2a__2'
p226
F9.6138049999999993
sS'100_3_0___Fa36a_4'
p227
F0.95745116666666663
sS'80_8_0_3_Da4a__12'
p228
F0.93510133333333334
sS'100_8_0__Da2a__8'
p229
F3.8294533333333338
sS'80_3_0__Da8a__12'
p230
F0.29523416666666669
sS'100_8_0_3_Da4a_Fa36a_12'
p231
F1.8064266666666668
sS'30_8_0___Fa36a_12'
p232
F0.067387166666666665
sS'100_1_0_3_Da8a_Fa6a_1'
p233
F0.14964683333333334
sS'100_8_0___Fa6a_12'
p234
F4.4637433333333325
sS'30_1_0__Da12a_Fa12a_1'
p235
F0.0037074816666666666
sS'30_1_0__Da12a_Fa12a_2'
p236
F0.012670083333333332
sS'30_1_0__Da12a_Fa12a_4'
p237
F0.0079336883333333344
sS'30_1_0__Da12a_Fa12a_8'
p238
F0.0062134133333333333
sS'30_3_0_3_Da4a_Fa24a_12'
p239
F0.0126067
sS'100_8_0___Fa6a_8'
p240
F3.98176
sS'100_8_0___Fa6a_2'
p241
F7.6994800000000003
sS'100_8_0___Fa6a_1'
p242
F5.9449033333333334
sS'30_1_0_3_Da2a__12'
p243
F0.0035582649999999997
sS'100_8_0___Fa6a_4'
p244
F4.8169366666666669
sS'80_1_0__Da4a_Fa24a_12'
p245
F0.089779966666666669
sS'100_1_0_3_Da2a_Fa18a_12'
p246
F0.093883616666666669
sS'100_1_0_3_Da2a_Fa36a_2'
p247
F0.21723650000000003
sS'100_8_0____12'
p248
F6.0984749999999996
sS'30_8_0__Da8a_Fa18a_8'
p249
F0.068191633333333335
sS'30_8_0__Da8a_Fa18a_4'
p250
F0.094357599999999986
sS'80_8_0_3_Da4a_Fa18a_12'
p251
F0.98600049999999995
sS'30_8_0__Da8a_Fa18a_2'
p252
F0.15857516666666668
sS'30_8_0__Da8a_Fa18a_1'
p253
F0.17081933333333332
sS'100_3_0__Da2a_Fa6a_1'
p254
F0.64736700000000003
sS'100_3_0_3_Da2a_Fa12a_2'
p255
F0.54831283333333325
sS'100_1_0__Da2a_Fa12a_12'
p256
F0.18721216666666665
sS'100_1_0__Da4a_Fa18a_2'
p257
F0.54096449999999996
sS'100_8_0__Da12a__12'
p258
F2.44584
sS'100_3_0__Da8a_Fa12a_2'
p259
F1.5362549999999999
sS'30_3_0_3_Da2a__12'
p260
F0.013477016666666666
sS'30_8_0__Da4a_Fa12a_12'
p261
F0.080902700000000008
sS'80_3_0_3_Da8a_Fa18a_12'
p262
F0.17157916666666664
sS'30_1_0_3_Da8a_Fa18a_12'
p263
F0.003633988333333333
sS'80_3_0_3_Da2a__8'
p264
F0.16562533333333332
sS'100_3_0__Da8a_Fa12a_1'
p265
F0.64626466666666671
sS'80_3_0_3_Da2a__1'
p266
F0.3290608333333333
sS'80_3_0_3_Da2a__2'
p267
F0.28950116666666664
sS'80_8_0_3_Da8a_Fa6a_12'
p268
F1.4957483333333332
sS'80_3_0_3_Da2a__4'
p269
F0.19876933333333333
sS'100_3_0__Da8a_Fa12a_4'
p270
F0.85147249999999997
sS'80_3_0__Da4a_Fa6a_8'
p271
F0.43408449999999998
sS'80_8_0_3_Da12a_Fa36a_12'
p272
F1.0304733333333334
sS'80_3_0__Da4a_Fa6a_4'
p273
F0.62465716666666671
sS'30_8_0_3__Fa24a_12'
p274
F0.060404833333333331
sS'80_3_0__Da4a_Fa6a_2'
p275
F0.9451883333333333
sS'80_3_0__Da4a_Fa6a_1'
p276
F0.32818483333333331
sS'100_1_0__Da4a_Fa18a_8'
p277
F0.19689283333333332
sS'30_8_0_3__Fa36a_8'
p278
F0.059196116666666666
sS'100_3_0_3_Da2a_Fa24a_4'
p279
F0.37766849999999996
sS'30_8_0_3__Fa36a_4'
p280
F0.070842666666666679
sS'30_8_0_3__Fa36a_2'
p281
F0.109274
sS'80_3_0_3__Fa12a_8'
p282
F0.17374633333333334
sS'30_8_0_3__Fa36a_1'
p283
F0.17086799999999999
sS'30_8_0__Da4a__12'
p284
F0.074497999999999995
sS'80_8_0__Da4a__8'
p285
F1.5584266666666666
sS'30_3_0_3_Da2a_Fa36a_8'
p286
F0.012697083333333333
sS'100_8_0_3__Fa18a_8'
p287
F1.8844683333333336
sS'30_3_0_3_Da2a_Fa36a_4'
p288
F0.014272150000000003
sS'80_8_0__Da4a__1'
p289
F3.0413750000000004
sS'30_3_0_3_Da2a_Fa36a_1'
p290
F0.019288499999999997
sS'100_3_0__Da8a_Fa6a_8'
p291
F0.73088116666666669
sS'30_3_0_3_Da2a_Fa36a_2'
p292
F0.021112683333333337
sS'spe10_3_0_3__Fa6a_1'
p293
F2.0814416666666666
sS'spe10_3_0_3__Fa6a_2'
p294
F2.0237133333333333
sS'spe10_3_0_3__Fa6a_4'
p295
F1.5449633333333335
sS'80_1_0___Fa18a_12'
p296
F0.086824699999999991
sS'100_8_0__Da12a_Fa24a_1'
p297
F5.9604799999999996
sS'spe10_3_0_3__Fa6a_8'
p298
F1.7502016666666667
sS'80_1_0__Da2a_Fa24a_12'
p299
F0.079969083333333343
sS'80_3_0___Fa6a_2'
p300
F0.88295983333333317
sS'100_8_0__Da12a_Fa36a_4'
p301
F4.1280799999999997
sS'100_8_0__Da12a_Fa36a_2'
p302
F7.2929133333333338
sS'100_8_0__Da12a_Fa36a_1'
p303
F5.9679499999999992
sS'100_8_0__Da12a_Fa24a_4'
p304
F4.1770033333333334
sS'100_8_0_3_Da4a_Fa6a_12'
p305
F2.8420550000000002
sS'100_8_0__Da12a_Fa36a_8'
p306
F2.7584666666666666
sS'100_3_0__Da8a_Fa6a_2'
p307
F1.5906200000000001
sS'100_3_0___Fa6a_8'
p308
F0.84234950000000008
sS'100_8_0_3_Da8a_Fa6a_2'
p309
F3.3667733333333332
sS'80_1_0__Da12a__12'
p310
F0.13396983333333334
sS'100_3_0___Fa6a_2'
p311
F1.7901016666666665
sS'100_3_0___Fa6a_1'
p312
F0.64801900000000001
sS'100_3_0___Fa6a_4'
p313
F1.0488033333333333
sS'80_3_0_3_Da2a_Fa18a_2'
p314
F0.28724549999999999
sS'80_3_0_3_Da2a_Fa18a_1'
p315
F0.33755733333333332
sS'80_3_0_3__Fa12a_12'
p316
F0.18189516666666669
sS'80_3_0_3_Da2a_Fa18a_4'
p317
F0.19702099999999997
sS'80_3_0_3_Da2a_Fa18a_8'
p318
F0.16444533333333333
sS'100_3_0__Da4a_Fa6a_1'
p319
F0.6459596666666666
sS'80_1_0__Da2a__12'
p320
F0.47188266666666667
sS'100_1_0_3_Da12a_Fa6a_8'
p321
F0.10966466666666667
sS'80_3_0_3__Fa36a_8'
p322
F0.16783416666666665
sS'30_3_0__Da12a__8'
p323
F0.022612949999999996
sS'spe10_3_0__Da2a_Fa6a_8'
p324
F2.7931616666666668
sS'100_1_0_3_Da8a__4'
p325
F0.11048716666666665
sS'100_8_0__Da8a_Fa36a_4'
p326
F3.5951983333333337
sS'spe10_3_0_3___12'
p327
F1.2268733333333335
sS'80_3_0_3__Fa36a_1'
p328
F0.32884383333333334
sS'80_3_0_3__Fa36a_2'
p329
F0.30337833333333331
sS'spe10_3_0__Da2a_Fa6a_1'
p330
F2.08996
sS'80_3_0_3__Fa36a_4'
p331
F0.20536233333333331
sS'30_3_0__Da12a__4'
p332
F0.035663966666666672
sS'spe10_3_0__Da2a_Fa6a_4'
p333
F3.615698333333333
sS'spe10_3_0_3__Fa12a_8'
p334
F1.2703300000000002
sS'80_1_0__Da12a_Fa24a_12'
p335
F0.088106550000000006
sS'spe10_3_0_3__Fa12a_2'
p336
F2.022885
sS'spe10_3_0_3__Fa12a_4'
p337
F1.3524666666666665
sS'spe10_3_0__Da8a_Fa6a_1'
p338
F2.0807383333333331
sS'spe10_3_0__Da8a_Fa6a_2'
p339
F6.209808333333334
sS'spe10_3_0__Da8a_Fa6a_4'
p340
F4.5167399999999995
sS'spe10_3_0__Da8a_Fa6a_8'
p341
F2.8136016666666666
sS'100_8_0_3_Da12a_Fa18a_2'
p342
F3.3482350000000003
sS'100_8_0_3_Da12a_Fa18a_4'
p343
F2.2002216666666663
sS'30_8_0_3_Da8a_Fa18a_2'
p344
F0.10514283333333334
sS'30_8_0_3_Da8a_Fa18a_1'
p345
F0.17132983333333332
sS'30_8_0_3_Da8a_Fa18a_4'
p346
F0.077223466666666671
sS'30_8_0_3_Da8a_Fa18a_8'
p347
F0.08045745
sS'100_1_0__Da12a_Fa6a_2'
p348
F0.5216615
sS'80_8_0___Fa18a_2'
p349
F3.5661400000000003
sS'80_8_0___Fa18a_1'
p350
F3.04087
sS'spe10_3_0_3_Da4a__2'
p351
F2.0819583333333331
sS'80_8_0___Fa18a_4'
p352
F2.0086083333333331
sS'30_3_0_3_Da12a_Fa24a_12'
p353
F0.015079049999999998
sS'80_1_0_3_Da12a_Fa24a_12'
p354
F0.046932566666666668
sS'80_8_0___Fa18a_8'
p355
F1.3268783333333334
sS'30_1_0___Fa36a_2'
p356
F0.015549266666666665
sS'100_3_0__Da8a_Fa12a_8'
p357
F0.5460086666666667
sS'30_8_0__Da2a_Fa12a_12'
p358
F0.080099116666666678
sS'30_3_0__Da2a_Fa36a_12'
p359
F0.019211733333333331
sS'spe10_3_0_3_Da8a_Fa6a_1'
p360
F2.072953333333333
sS'spe10_3_0_3_Da8a_Fa6a_2'
p361
F1.8379033333333332
sS'30_1_0_3_Da8a__12'
p362
F0.0036790199999999999
sS'spe10_3_0_3_Da8a_Fa6a_4'
p363
F1.4060549999999996
sS'80_1_0__Da8a_Fa18a_8'
p364
F0.075876579999999999
sS'spe10_3_0_3_Da8a_Fa6a_8'
p365
F1.5000850000000001
sS'80_1_0__Da8a_Fa18a_4'
p366
F0.12112883333333331
sS'80_1_0__Da8a_Fa18a_2'
p367
F0.21831683333333332
sS'30_1_0_3_Da8a_Fa36a_12'
p368
F0.0036297299999999998
sS'30_1_0_3_Da12a_Fa18a_4'
p369
F0.0030946350000000001
sS'30_1_0_3_Da12a_Fa18a_1'
p370
F0.0037876433333333334
sS'30_1_0_3_Da12a_Fa18a_2'
p371
F0.0041477516666666671
sS'100_1_0_3__Fa6a_12'
p372
F0.15211116666666669
sS'30_1_0_3_Da12a_Fa18a_8'
p373
F0.0031725883333333336
sS'100_8_0___Fa24a_4'
p374
F4.0839400000000001
sS'80_8_0__Da4a_Fa36a_12'
p375
F1.1970933333333333
sS'30_1_0___Fa36a_8'
p376
F0.0078013683333333327
sS'100_3_0__Da8a_Fa24a_2'
p377
F1.5320116666666668
sS'100_8_0___Fa24a_1'
p378
F5.9805150000000005
sS'80_8_0__Da12a_Fa36a_2'
p379
F3.6010783333333336
sS'80_8_0__Da12a_Fa36a_1'
p380
F3.0320083333333336
sS'80_8_0__Da12a_Fa36a_4'
p381
F2.0385983333333333
sS'80_8_0__Da12a_Fa36a_8'
p382
F1.3592466666666665
sS'80_1_0__Da12a_Fa24a_1'
p383
F0.076057333333333338
sS'80_1_0_3_Da12a_Fa18a_8'
p384
F0.046444683333333327
sS'100_3_0_3_Da8a_Fa6a_8'
p385
F0.37572199999999994
sS'100_3_0__Da8a_Fa36a_12'
p386
F0.40469650000000001
sS'80_1_0_3_Da12a_Fa18a_1'
p387
F0.075643066666666661
sS'80_1_0_3_Da12a_Fa18a_2'
p388
F0.078443383333333325
sS'100_3_0_3_Da8a_Fa6a_1'
p389
F0.64464299999999997
sS'80_1_0_3_Da12a_Fa18a_4'
p390
F0.054762833333333337
sS'100_3_0_3_Da8a_Fa6a_4'
p391
F0.3666118333333333
sS'80_1_0__Da12a_Fa18a_8'
p392
F0.10006473333333334
sS'30_3_0_3_Da4a_Fa18a_12'
p393
F0.012504266666666666
sS'80_8_0__Da2a_Fa36a_12'
p394
F1.1467916666666669
sS'80_1_0__Da12a_Fa18a_1'
p395
F0.076025033333333325
sS'80_1_0__Da12a_Fa18a_2'
p396
F0.26641133333333339
sS'80_1_0__Da12a_Fa24a_4'
p397
F0.15273083333333334
sS'80_1_0__Da12a_Fa18a_4'
p398
F0.1526275
sS'100_1_0_3__Fa18a_12'
p399
F0.096966616666666672
sS'30_8_0__Da12a_Fa12a_12'
p400
F0.081588050000000009
sS'80_1_0__Da8a__12'
p401
F0.14308549999999998
sS'30_1_0_3__Fa36a_12'
p402
F0.0035286666666666674
sS'spe10_3_0__Da12a_Fa36a_1'
p403
F2.087603333333333
sS'spe10_3_0__Da12a_Fa36a_2'
p404
F6.0425233333333326
sS'80_8_0___Fa36a_4'
p405
F2.004326666666667
sS'spe10_3_0__Da12a_Fa36a_4'
p406
F3.3723166666666664
sS'80_8_0___Fa36a_2'
p407
F3.5707366666666669
sS'80_1_0_3_Da2a_Fa12a_12'
p408
F0.055219416666666667
sS'spe10_3_0__Da12a_Fa36a_8'
p409
F2.0568849999999999
sS'100_8_0_3_Da4a_Fa24a_12'
p410
F1.82507
sS'80_8_0___Fa36a_8'
p411
F1.2947783333333331
sS'80_8_0___Fa24a_1'
p412
F3.029336666666667
sS'80_8_0___Fa24a_2'
p413
F3.5630216666666672
sS'80_8_0___Fa24a_4'
p414
F2.0054633333333336
sS'80_8_0__Da2a_Fa18a_2'
p415
F3.5693250000000005
sS'80_1_0_3___12'
p416
F0.053084983333333335
sS'80_8_0__Da2a_Fa18a_8'
p417
F1.3494400000000002
sS'100_3_0__Da4a_Fa36a_4'
p418
F1.0029016666666666
sS'100_3_0__Da4a_Fa36a_1'
p419
F0.64580416666666662
sS'100_3_0__Da4a_Fa36a_2'
p420
F1.8413483333333336
sS'100_3_0__Da4a_Fa36a_8'
p421
F0.60557550000000004
sS'30_3_0__Da12a_Fa12a_12'
p422
F0.020191083333333332
sS'100_1_0_3__Fa6a_8'
p423
F0.14051
sS'30_3_0__Da12a_Fa18a_4'
p424
F0.031046233333333329
sS'30_3_0__Da12a_Fa18a_1'
p425
F0.019386366666666668
sS'30_8_0_3_Da8a_Fa18a_12'
p426
F0.090996016666666679
sS'30_3_0__Da12a_Fa18a_2'
p427
F0.053485649999999996
sS'100_1_0_3__Fa6a_1'
p428
F0.14779250000000002
sS'100_1_0_3__Fa6a_2'
p429
F0.23297683333333333
sS'100_1_0_3__Fa6a_4'
p430
F0.15167083333333334
sS'30_3_0__Da12a_Fa18a_8'
p431
F0.0203955
sS'80_1_0_3_Da2a_Fa6a_8'
p432
F0.070654566666666654
sS'80_1_0_3_Da2a_Fa6a_2'
p433
F0.11333983333333335
sS'30_8_0_3_Da12a_Fa24a_12'
p434
F0.092823266666666668
sS'80_1_0_3_Da2a_Fa6a_1'
p435
F0.075599100000000002
sS'80_1_0_3_Da2a_Fa6a_4'
p436
F0.07321735
sS'30_8_0__Da12a_Fa6a_4'
p437
F0.14039383333333333
sS'30_1_0_3_Da2a_Fa6a_8'
p438
F0.0043906833333333325
sS'30_8_0__Da12a_Fa6a_2'
p439
F0.18821766666666664
sS'30_8_0___Fa12a_2'
p440
F0.19216683333333331
sS'30_8_0__Da12a_Fa6a_1'
p441
F0.1722505
sS'30_1_0_3_Da2a_Fa6a_2'
p442
F0.0061691350000000001
sS'30_1_0_3_Da2a_Fa6a_1'
p443
F0.0036915983333333335
sS'30_3_0_3_Da2a_Fa12a_4'
p444
F0.014247183333333331
sS'30_3_0_3_Da2a_Fa12a_2'
p445
F0.02078255
sS'30_3_0_3_Da2a_Fa12a_1'
p446
F0.019301799999999997
sS'30_1_0_3_Da2a_Fa6a_4'
p447
F0.0042596966666666666
sS'30_3_0___Fa6a_4'
p448
F0.030868566666666666
sS'100_8_0__Da4a_Fa18a_12'
p449
F2.7395
sS'30_3_0___Fa6a_1'
p450
F0.019359350000000004
sS'100_3_0__Da4a__12'
p451
F0.86772450000000001
sS'30_3_0___Fa6a_2'
p452
F0.049316400000000003
sS'30_3_0___Fa6a_8'
p453
F0.026521916666666662
sS'80_3_0_3_Da4a_Fa18a_12'
p454
F0.16294149999999999
sS'100_1_0___Fa36a_12'
p455
F0.14685999999999999
sS'80_1_0___Fa24a_12'
p456
F0.080251100000000006
sS'30_8_0___Fa12a_8'
p457
F0.081959040000000011
sS'spe10_3_0_3_Da8a_Fa24a_12'
p458
F1.1084350000000001
sS'100_3_0___Fa24a_4'
p459
F0.94837566666666662
sS'80_1_0_3_Da8a_Fa12a_8'
p460
F0.050683200000000005
sS'100_3_0___Fa24a_2'
p461
F1.7260249999999999
sS'100_3_0___Fa24a_1'
p462
F0.64649733333333337
sS'30_1_0_3_Da12a_Fa36a_12'
p463
F0.0033027133333333337
sS'30_1_0__Da8a_Fa24a_12'
p464
F0.0037645033333333334
sS'spe10_3_0_3_Da8a_Fa12a_4'
p465
F1.2855900000000002
sS'80_1_0_3_Da8a_Fa12a_1'
p466
F0.07592320000000001
sS'80_1_0_3_Da8a_Fa12a_2'
p467
F0.085447866666666664
sS'100_3_0___Fa24a_8'
p468
F0.57002366666666671
sS'100_1_0____8'
p469
F2.4461499999999998
sS'100_8_0_3_Da8a_Fa36a_4'
p470
F2.2055666666666665
sS'80_1_0_3_Da12a_Fa6a_4'
p471
F0.056924483333333331
sS'80_1_0_3_Da12a_Fa6a_2'
p472
F0.077787933333333337
sS'30_8_0__Da2a_Fa24a_8'
p473
F0.076414783333333333
sS'100_1_0____1'
p474
F0.14857516666666665
sS'100_1_0____2'
p475
F4.4906633333333339
sS'30_8_0__Da2a_Fa24a_4'
p476
F0.11372083333333334
sS'100_1_0____4'
p477
F3.2503299999999999
sS'30_8_0_3_Da4a_Fa18a_12'
p478
F0.069666733333333342
sS'30_8_0__Da2a_Fa24a_1'
p479
F0.17076033333333332
sS'80_3_0__Da12a__12'
p480
F0.30221566666666672
sS'80_1_0_3_Da8a_Fa36a_4'
p481
F0.058590700000000003
sS'80_1_0_3_Da8a_Fa36a_2'
p482
F0.085881299999999994
sS'80_1_0_3_Da8a_Fa36a_1'
p483
F0.075938766666666671
sS'100_8_0__Da8a_Fa18a_4'
p484
F3.7287516666666662
sS'100_8_0__Da8a_Fa18a_2'
p485
F6.6982650000000001
sS'80_1_0_3_Da8a_Fa36a_8'
p486
F0.04897601666666667
sS'100_8_0_3_Da4a__8'
p487
F1.8459849999999998
sS'80_3_0_3_Da8a_Fa6a_4'
p488
F0.19135183333333336
sS'100_8_0_3_Da4a__4'
p489
F2.1777466666666672
sS'100_1_0__Da8a_Fa36a_12'
p490
F0.11906166666666668
sS'100_8_0_3_Da4a__1'
p491
F5.9625683333333335
sS'100_8_0_3_Da4a__2'
p492
F3.3900483333333331
sS'100_8_0__Da2a_Fa6a_1'
p493
F5.976186666666667
sS'30_1_0_3_Da4a_Fa24a_12'
p494
F0.0030143400000000003
sS'100_8_0_3_Da4a_Fa12a_12'
p495
F2.0864050000000001
sS'80_3_0___Fa12a_8'
p496
F0.31228616666666664
sS'80_3_0_3_Da8a_Fa24a_4'
p497
F0.1851005
sS'80_8_0__Da4a_Fa24a_12'
p498
F1.2481216666666668
sS'spe10_3_0__Da2a_Fa24a_12'
p499
F1.5608416666666667
sS'80_3_0_3_Da8a_Fa24a_1'
p500
F0.32977016666666664
sS'80_3_0___Fa12a_2'
p501
F0.86607600000000007
sS'100_8_0_3__Fa24a_12'
p502
F1.8084449999999999
sS'80_3_0___Fa12a_1'
p503
F0.32888333333333336
sS'80_3_0___Fa12a_4'
p504
F0.47982683333333331
sS'80_3_0_3_Da8a_Fa24a_8'
p505
F0.16575183333333335
sS'spe10_3_0_3_Da4a_Fa18a_12'
p506
F1.1899150000000001
sS'30_1_0_3_Da8a__2'
p507
F0.0047553433333333327
sS'30_1_0_3_Da8a__4'
p508
F0.0034344000000000002
sS'80_3_0__Da4a_Fa24a_12'
p509
F0.26020966666666667
sS'30_1_0_3_Da8a__8'
p510
F0.003500595
sS'80_3_0__Da8a_Fa18a_8'
p511
F0.26319283333333332
sS'80_3_0__Da4a__4'
p512
F0.79124383333333348
sS'80_3_0__Da4a__2'
p513
F1.3095700000000001
sS'100_8_0_3__Fa18a_12'
p514
F1.8722533333333333
sS'80_3_0__Da4a__1'
p515
F0.32888166666666668
sS'80_8_0_3_Da4a_Fa24a_2'
p516
F1.7142033333333335
sS'80_3_0__Da8a_Fa18a_1'
p517
F0.32958166666666661
sS'80_3_0__Da8a_Fa18a_2'
p518
F0.77594700000000005
sS'80_8_0_3_Da4a_Fa24a_1'
p519
F3.0331566666666667
sS'80_3_0__Da8a_Fa18a_4'
p520
F0.42856633333333338
sS'80_3_0__Da4a__8'
p521
F0.52202816666666674
sS'30_8_0____12'
p522
F0.17555899999999999
sS'spe10_3_0_3_Da4a_Fa36a_4'
p523
F1.3611250000000001
sS'30_3_0__Da4a__8'
p524
F0.031200533333333332
sS'30_3_0__Da4a__1'
p525
F0.019294516666666667
sS'100_1_0__Da8a_Fa12a_12'
p526
F0.14735800000000002
sS'30_3_0__Da4a__2'
p527
F0.074768149999999992
sS'30_3_0__Da4a__4'
p528
F0.046310650000000002
sS'30_3_0_3_Da12a_Fa6a_12'
p529
F0.015869116666666665
sS'80_8_0_3_Da2a__12'
p530
F0.94301266666666661
sS'100_8_0__Da12a_Fa18a_12'
p531
F2.8999866666666669
sS'100_1_0__Da4a_Fa12a_8'
p532
F0.2151565
sS'30_1_0_3_Da4a_Fa36a_12'
p533
F0.0030332850000000001
sS'100_8_0_3_Da2a_Fa24a_4'
p534
F2.2400433333333338
sS'100_8_0_3___1'
p535
F5.9990016666666675
sS'100_8_0_3___2'
p536
F3.5131449999999997
sS'100_8_0_3___4'
p537
F2.2524300000000004
sS'100_8_0_3_Da4a_Fa18a_4'
p538
F2.1870449999999999
sS'100_8_0_3___8'
p539
F1.8611650000000004
sS'30_8_0__Da8a_Fa24a_12'
p540
F0.06352753333333333
sS'spe10_3_0___Fa6a_8'
p541
F2.6878383333333336
sS'spe10_3_0_3_Da2a_Fa24a_12'
p542
F1.0954466666666665
sS'spe10_3_0__Da4a_Fa12a_4'
p543
F3.4175333333333335
sS'100_1_0_3_Da8a_Fa24a_12'
p544
F0.089973249999999991
sS'spe10_3_0__Da4a_Fa12a_1'
p545
F2.08873
sS'spe10_3_0__Da4a_Fa12a_2'
p546
F6.0057333333333327
sS'30_1_0__Da12a_Fa6a_8'
p547
F0.0072160683333333331
sS'30_1_0__Da12a_Fa6a_4'
p548
F0.0088038983333333341
sS'spe10_3_0__Da4a_Fa12a_8'
p549
F2.3988299999999998
sS'30_1_0__Da12a_Fa6a_2'
p550
F0.012195933333333332
sS'30_1_0__Da12a_Fa6a_1'
p551
F0.0037280466666666664
sS'100_8_0__Da2a_Fa36a_12'
p552
F2.3231833333333332
sS'80_3_0_3__Fa12a_2'
p553
F0.295599
sS'80_3_0_3__Fa12a_1'
p554
F0.32880666666666669
sS'30_3_0_3_Da8a_Fa24a_8'
p555
F0.013907549999999999
sS'80_3_0_3__Fa12a_4'
p556
F0.20238833333333336
sS'100_3_0__Da4a_Fa24a_2'
p557
F1.8011733333333335
sS'30_3_0_3_Da8a_Fa24a_4'
p558
F0.013295550000000001
sS'spe10_3_0_3_Da2a_Fa6a_2'
p559
F2.0286566666666666
sS'30_3_0_3_Da8a_Fa24a_1'
p560
F0.019309333333333331
sS'30_3_0_3_Da8a_Fa24a_2'
p561
F0.016915733333333332
sS'100_8_0_3_Da8a_Fa6a_1'
p562
F5.9851133333333335
sS'100_3_0__Da4a_Fa6a_4'
p563
F1.1987383333333332
sS'30_1_0_3_Da8a_Fa12a_4'
p564
F0.0034239449999999999
sS'100_3_0__Da4a_Fa6a_2'
p565
F1.8944516666666666
sS'100_8_0_3_Da8a_Fa6a_4'
p566
F2.39649
sS'30_8_0__Da12a_Fa12a_8'
p567
F0.091561249999999997
sS'80_1_0_3___1'
p568
F0.074918216666666662
sS'100_8_0_3_Da8a_Fa6a_8'
p569
F2.4345816666666669
sS'30_8_0__Da12a_Fa12a_4'
p570
F0.11222333333333334
sS'30_8_0__Da12a_Fa12a_2'
p571
F0.18665516666666668
sS'100_3_0__Da4a_Fa6a_8'
p572
F0.87819483333333326
sS'30_8_0__Da12a_Fa12a_1'
p573
F0.17118150000000001
sS'80_1_0__Da8a__4'
p574
F0.23611866666666667
sS'30_3_0__Da12a_Fa24a_12'
p575
F0.018151383333333333
sS'spe10_3_0___Fa6a_2'
p576
F5.6986200000000009
sS'80_1_0__Da8a__1'
p577
F0.075301300000000002
sS'80_1_0__Da8a__2'
p578
F0.36525549999999996
sS'100_8_0__Da4a_Fa24a_8'
p579
F2.8056333333333332
sS'80_1_0__Da8a__8'
p580
F0.16344733333333336
sS'100_8_0_3_Da4a_Fa18a_8'
p581
F1.8793499999999999
sS'80_3_0_3__Fa6a_12'
p582
F0.24293933333333331
sS'30_1_0_3___1'
p583
F0.0037701349999999995
sS'100_1_0_3_Da8a__12'
p584
F0.089835566666666658
sS'30_3_0__Da2a_Fa6a_12'
p585
F0.02896286666666667
sS'100_3_0_3_Da12a_Fa24a_1'
p586
F0.64665133333333336
sS'100_3_0_3_Da12a_Fa24a_2'
p587
F0.46956999999999999
sS'100_3_0_3_Da12a_Fa24a_4'
p588
F0.34746033333333332
sS'30_3_0___Fa18a_12'
p589
F0.018005616666666665
sS'100_8_0___Fa18a_4'
p590
F4.1099966666666665
sS'100_3_0_3_Da12a_Fa12a_12'
p591
F0.33988216666666665
sS'100_8_0___Fa18a_2'
p592
F7.3837233333333332
sS'100_8_0___Fa18a_1'
p593
F5.9835216666666673
sS'100_8_0_3_Da4a_Fa18a_1'
p594
F5.9610866666666666
sS'30_8_0_3_Da2a__12'
p595
F0.070515133333333327
sS'100_8_0___Fa18a_8'
p596
F2.709203333333333
sS'spe10_3_0_3_Da8a_Fa18a_12'
p597
F1.1627433333333332
sS'100_8_0__Da12a_Fa6a_4'
p598
F5.6475683333333331
sS'80_1_0__Da2a_Fa12a_8'
p599
F0.10031561666666666
sS'80_8_0_3_Da2a_Fa12a_4'
p600
F1.1671550000000002
sS'30_8_0_3_Da12a_Fa36a_12'
p601
F0.092928866666666665
sS'80_1_0__Da2a_Fa12a_4'
p602
F0.14213183333333332
sS'80_1_0__Da2a_Fa12a_2'
p603
F0.25158483333333331
sS'80_3_0___Fa18a_2'
p604
F0.86577850000000012
sS'80_1_0__Da2a_Fa12a_1'
p605
F0.075918733333333335
sS'100_1_0___Fa18a_2'
p606
F0.51309016666666662
sS'spe10_3_0___Fa6a_1'
p607
F2.0827566666666666
sS'spe10_3_0_3_Da12a_Fa12a_8'
p608
F1.1947966666666667
sS'100_1_0___Fa18a_1'
p609
F0.14819666666666667
sS'spe10_3_0___Fa6a_4'
p610
F3.3522933333333333
sS'100_1_0___Fa18a_4'
p611
F0.28303883333333335
sS'spe10_3_0_3_Da12a_Fa12a_2'
p612
F1.8040533333333333
sS'80_1_0____12'
p613
F1.123005
sS'100_1_0___Fa18a_8'
p614
F0.1768801666666667
sS'spe10_3_0_3_Da12a_Fa12a_1'
p615
F2.0930049999999998
sS'100_3_0_3_Da4a__4'
p616
F0.35751550000000004
sS'spe10_3_0_3_Da12a_Fa12a_4'
p617
F1.2724633333333333
sS'30_3_0_3_Da2a__1'
p618
F0.019286750000000002
sS'30_1_0_3___8'
p619
F0.0037214283333333333
sS'80_1_0_3___2'
p620
F0.13645766666666667
sS'30_3_0_3_Da2a__2'
p621
F0.020999199999999999
sS'80_1_0_3___4'
p622
F0.08292161666666667
sS'30_3_0_3_Da2a__4'
p623
F0.01425735
sS'80_8_0_3__Fa12a_12'
p624
F1.0779666666666665
sS'80_1_0_3___8'
p625
F0.059264700000000003
sS'30_3_0_3_Da2a__8'
p626
F0.012621166666666668
sS'30_1_0_3___2'
p627
F0.0077864816666666668
sS'100_3_0_3_Da12a_Fa6a_12'
p628
F0.42956833333333333
sS'30_1_0_3___4'
p629
F0.004974455
sS'100_8_0_3_Da4a_Fa18a_2'
p630
F3.3325416666666663
sS'spe10_3_0__Da12a__2'
p631
F7.3299283333333323
sS'80_8_0__Da12a_Fa12a_1'
p632
F3.0410833333333334
sS'spe10_3_0__Da12a__1'
p633
F2.0828349999999998
sS'spe10_3_0__Da12a__4'
p634
F4.1295933333333332
sS'spe10_3_0___Fa36a_12'
p635
F1.4587000000000001
sS'spe10_3_0__Da12a__8'
p636
F2.5161666666666664
sS'30_8_0__Da8a__12'
p637
F0.064497633333333346
sS'30_8_0_3_Da2a_Fa36a_12'
p638
F0.070977150000000003
sS'spe10_3_0__Da8a_Fa18a_4'
p639
F3.4387249999999998
sS'100_3_0__Da12a_Fa12a_4'
p640
F0.98904733333333328
sS'spe10_3_0__Da8a_Fa18a_2'
p641
F5.9789033333333341
sS'100_3_0_3_Da2a_Fa36a_8'
p642
F0.31463916666666669
sS'spe10_3_0__Da8a_Fa18a_1'
p643
F2.0928433333333336
sS'100_3_0_3_Da2a_Fa36a_4'
p644
F0.37788966666666668
sS'100_8_0__Da12a_Fa6a_8'
p645
F3.8084816666666668
sS'100_3_0_3_Da2a_Fa36a_2'
p646
F0.54830866666666667
sS'spe10_3_0__Da8a_Fa18a_8'
p647
F2.3280333333333334
sS'100_3_0_3_Da2a_Fa36a_1'
p648
F0.64638833333333334
sS'30_3_0_3__Fa6a_8'
p649
F0.015938233333333333
sS'100_1_0__Da2a_Fa24a_12'
p650
F0.15070150000000002
sS'100_8_0__Da2a_Fa24a_8'
p651
F2.6866266666666667
sS'30_1_0_3_Da12a_Fa6a_12'
p652
F0.0034450100000000001
sS'30_3_0_3__Fa6a_2'
p653
F0.021757700000000001
sS'30_3_0_3__Fa6a_1'
p654
F0.019295133333333332
sS'100_8_0__Da2a_Fa24a_2'
p655
F7.2411016666666663
sS'30_3_0_3__Fa6a_4'
p656
F0.015610383333333332
sS'30_3_0__Da2a__4'
p657
F0.066429016666666674
sS'100_3_0_3_Da12a__12'
p658
F0.31197116666666663
sS'30_3_0__Da2a__2'
p659
F0.096659866666666663
sS'30_3_0__Da2a__1'
p660
F0.01939745
sS'80_8_0__Da12a_Fa12a_8'
p661
F1.7030333333333332
sS'30_3_0__Da2a__8'
p662
F0.048121533333333327
sS'80_3_0_3_Da8a_Fa36a_12'
p663
F0.16957466666666665
sS'spe10_3_0_3_Da2a_Fa18a_8'
p664
F1.1162620000000001
sS'100_1_0___Fa24a_12'
p665
F0.14959016666666666
sS'spe10_3_0_3_Da2a_Fa18a_1'
p666
F2.0805750000000001
sS'spe10_3_0_3_Da2a_Fa18a_2'
p667
F2.0599766666666661
sS'spe10_3_0_3_Da2a_Fa18a_4'
p668
F1.3616516666666667
sS'100_3_0_3_Da4a_Fa24a_1'
p669
F0.64636700000000002
sS'100_1_0__Da8a_Fa36a_1'
p670
F0.14934433333333333
sS'80_8_0_3__Fa36a_4'
p671
F1.1493216666666668
sS'80_8_0_3__Fa36a_1'
p672
F3.0298616666666667
sS'80_8_0_3__Fa36a_2'
p673
F1.8062183333333335
sS'80_8_0_3__Fa36a_8'
p674
F0.95139933333333337
sS'spe10_3_0_3_Da2a__12'
p675
F1.080465
sS'100_8_0__Da8a_Fa6a_12'
p676
F4.0242966666666664
sS'80_3_0__Da8a_Fa12a_12'
p677
F0.24106533333333335
sS'80_1_0_3__Fa36a_8'
p678
F0.057414400000000004
sS'100_8_0_3_Da2a_Fa36a_1'
p679
F5.9850133333333337
sS'80_1_0_3__Fa36a_4'
p680
F0.081679299999999996
sS'80_1_0_3__Fa36a_2'
p681
F0.1330045
sS'80_1_0_3__Fa36a_1'
p682
F0.075097183333333331
sS'30_3_0__Da8a_Fa36a_1'
p683
F0.019310616666666666
sS'80_3_0__Da2a_Fa18a_8'
p684
F0.29342850000000004
sS'30_3_0__Da8a_Fa36a_2'
p685
F0.047899366666666665
sS'30_3_0__Da8a_Fa36a_4'
p686
F0.027495066666666668
sS'80_3_0__Da2a_Fa18a_2'
p687
F0.8507596666666668
sS'30_3_0__Da8a_Fa36a_8'
p688
F0.017120900000000001
sS'80_3_0__Da2a_Fa18a_1'
p689
F0.329347
sS'80_3_0__Da2a_Fa18a_4'
p690
F0.47244816666666667
sS'30_1_0___Fa36a_12'
p691
F0.0071647799999999991
sS'80_1_0_3_Da2a_Fa18a_8'
p692
F0.052103716666666668
sS'80_8_0__Da8a__1'
p693
F3.0365716666666667
sS'100_3_0_3__Fa24a_8'
p694
F0.32491433333333331
sS'100_1_0__Da8a_Fa24a_12'
p695
F0.12142216666666665
sS'80_1_0_3__Fa6a_2'
p696
F0.12326666666666668
sS'100_3_0_3__Fa24a_1'
p697
F0.64787183333333331
sS'100_8_0__Da4a_Fa12a_1'
p698
F5.9902533333333343
sS'spe10_3_0__Da8a__12'
p699
F2.2162299999999999
sS'100_8_0__Da4a_Fa12a_2'
p700
F7.6660849999999998
sS'30_3_0__Da8a_Fa12a_12'
p701
F0.016320133333333334
sS'100_3_0__Da12a_Fa12a_2'
p702
F1.7295216666666668
sS'100_8_0__Da4a_Fa12a_8'
p703
F3.2504499999999994
sS'80_8_0_3__Fa12a_1'
p704
F3.0368483333333334
sS'100_8_0_3_Da12a__8'
p705
F1.9399816666666669
sS'100_8_0__Da2a_Fa24a_4'
p706
F4.1163016666666659
sS'30_3_0_3_Da12a_Fa36a_4'
p707
F0.012892766666666668
sS'30_3_0_3_Da12a_Fa36a_2'
p708
F0.015862466666666668
sS'30_3_0_3_Da12a_Fa36a_1'
p709
F0.019385616666666664
sS'100_8_0_3_Da4a_Fa12a_2'
p710
F3.3263633333333336
sS'100_3_0_3_Da2a_Fa18a_4'
p711
F0.3765681666666667
sS'100_1_0__Da8a__2'
p712
F0.71776950000000006
sS'100_3_0_3_Da2a_Fa18a_2'
p713
F0.54890816666666664
sS'30_3_0_3_Da12a_Fa36a_8'
p714
F0.013759199999999999
sS'spe10_3_0__Da4a_Fa24a_1'
p715
F2.0863883333333333
sS'spe10_3_0__Da4a_Fa24a_2'
p716
F5.9073083333333338
sS'spe10_3_0__Da4a_Fa24a_4'
p717
F3.3244400000000005
sS'spe10_3_0__Da4a_Fa24a_8'
p718
F2.0314266666666665
sS'100_8_0__Da2a_Fa24a_1'
p719
F5.9867699999999999
sS'100_1_0___Fa6a_12'
p720
F0.29964266666666667
sS'100_3_0_3_Da4a_Fa24a_4'
p721
F0.35706583333333336
sS'30_3_0__Da8a_Fa6a_8'
p722
F0.02306253333333334
sS'30_3_0__Da8a_Fa6a_4'
p723
F0.027851066666666664
sS'30_3_0__Da8a_Fa6a_1'
p724
F0.019345616666666666
sS'30_3_0__Da8a_Fa6a_2'
p725
F0.04518278333333333
sS'30_8_0__Da2a_Fa36a_8'
p726
F0.077245483333333323
sS'100_3_0_3_Da2a_Fa24a_1'
p727
F0.64439266666666672
sS'80_3_0_3_Da4a_Fa36a_12'
p728
F0.15644549999999999
sS'100_8_0_3_Da12a__12'
p729
F1.9674700000000003
sS'100_3_0_3_Da8a_Fa36a_12'
p730
F0.3123191666666667
sS'80_8_0_3_Da8a_Fa18a_12'
p731
F1.0616483333333333
sS'80_3_0__Da12a_Fa24a_1'
p732
F0.32886533333333334
sS'80_1_0_3_Da2a_Fa18a_4'
p733
F0.072051616666666665
sS'80_3_0__Da12a_Fa24a_2'
p734
F0.8839716666666666
sS'80_8_0___Fa12a_1'
p735
F3.0325983333333331
sS'80_3_0__Da12a_Fa24a_4'
p736
F0.49250050000000001
sS'30_3_0___Fa24a_12'
p737
F0.017557333333333331
sS'80_8_0___Fa12a_2'
p738
F3.5690133333333338
sS'100_1_0__Da4a_Fa12a_12'
p739
F0.1908415
sS'80_3_0__Da12a_Fa24a_8'
p740
F0.30730733333333332
sS'80_8_0___Fa12a_8'
p741
F1.4749333333333334
sS'80_8_0__Da12a_Fa36a_12'
p742
F1.22421
sS'100_3_0_3_Da4a_Fa36a_2'
p743
F0.50092066666666668
sS'80_1_0_3_Da2a_Fa18a_1'
p744
F0.076385483333333337
sS'100_8_0_3__Fa24a_1'
p745
F5.9655649999999989
sS'30_3_0_3_Da12a_Fa6a_4'
p746
F0.013128949999999999
sS'30_3_0_3_Da12a_Fa6a_2'
p747
F0.015814566666666665
sS'30_3_0_3_Da12a_Fa6a_1'
p748
F0.0193254
sS'80_1_0_3__Fa6a_12'
p749
F0.08055445
sS'100_3_0_3_Da4a_Fa36a_4'
p750
F0.35876749999999996
sS'30_3_0_3_Da12a_Fa6a_8'
p751
F0.014497083333333334
sS'100_3_0__Da4a_Fa18a_8'
p752
F0.62632033333333348
sS'30_8_0__Da12a_Fa6a_12'
p753
F0.11530416666666667
sS'100_3_0__Da2a_Fa6a_2'
p754
F1.7779966666666669
sS'100_3_0__Da2a_Fa6a_4'
p755
F1.06907
sS'100_3_0_3___12'
p756
F0.31165599999999999
sS'spe10_3_0_3_Da12a_Fa24a_8'
p757
F1.0816766666666666
sS'30_3_0__Da12a_Fa6a_1'
p758
F0.019328133333333334
sS'100_3_0__Da4a_Fa18a_1'
p759
F0.6457544999999999
sS'100_3_0__Da4a_Fa18a_2'
p760
F1.80745
sS'30_3_0__Da12a_Fa6a_2'
p761
F0.052651716666666661
sS'100_3_0__Da4a_Fa18a_4'
p762
F1.0049133333333333
sS'30_3_0__Da12a_Fa6a_4'
p763
F0.036275799999999997
sS'spe10_3_0_3_Da12a_Fa24a_1'
p764
F2.0875299999999997
sS'100_8_0__Da2a_Fa24a_12'
p765
F2.3972900000000004
sS'80_8_0__Da8a_Fa24a_12'
p766
F1.1115716666666666
sS'spe10_3_0_3_Da12a__12'
p767
F1.0618000000000001
sS'80_3_0_3_Da8a_Fa12a_1'
p768
F0.32856883333333325
sS'30_1_0_3_Da8a_Fa36a_8'
p769
F0.0034844699999999999
sS'30_1_0_3_Da8a_Fa36a_4'
p770
F0.0034232933333333336
sS'100_3_0_3_Da2a_Fa24a_12'
p771
F0.30489166666666662
sS'30_1_0_3_Da8a_Fa36a_1'
p772
F0.0037488250000000003
sS'30_1_0_3_Da8a_Fa36a_2'
p773
F0.0047259116666666665
sS'30_8_0__Da4a_Fa24a_8'
p774
F0.078453033333333325
sS'30_8_0__Da4a_Fa24a_1'
p775
F0.17131433333333335
sS'30_8_0__Da4a_Fa24a_2'
p776
F0.19853750000000001
sS'30_8_0__Da4a_Fa24a_4'
p777
F0.11444649999999999
sS'30_8_0__Da12a_Fa18a_8'
p778
F0.08048396666666667
sS'100_3_0_3_Da8a_Fa18a_8'
p779
F0.31283316666666666
sS'100_8_0_3_Da8a_Fa12a_8'
p780
F1.9981950000000002
sS'100_3_0_3_Da8a_Fa18a_4'
p781
F0.35470333333333331
sS'30_8_0__Da12a_Fa18a_1'
p782
F0.17093566666666668
sS'30_8_0__Da12a_Fa18a_2'
p783
F0.18790533333333334
sS'100_8_0_3_Da8a_Fa12a_4'
p784
F2.2221700000000002
sS'30_8_0__Da12a_Fa18a_4'
p785
F0.11114183333333333
sS'100_3_0_3_Da8a_Fa18a_1'
p786
F0.64662649999999999
sS'100_3_0_3_Da8a_Fa18a_2'
p787
F0.48840616666666664
sS'80_1_0___Fa12a_4'
p788
F0.14654516666666664
sS'80_1_0___Fa12a_1'
p789
F0.075138299999999991
sS'80_1_0___Fa12a_2'
p790
F0.26588833333333334
sS'100_3_0_3_Da4a_Fa6a_12'
p791
F0.43525983333333329
sS'80_8_0__Da8a_Fa36a_8'
p792
F1.2082433333333333
sS'80_1_0___Fa12a_8'
p793
F0.10073083333333334
sS'80_8_0__Da2a_Fa12a_12'
p794
F1.3866100000000001
sS'30_1_0___Fa6a_12'
p795
F0.0088397283333333347
sS'80_1_0_3_Da2a_Fa18a_2'
p796
F0.11803733333333333
sS'100_3_0__Da12a_Fa24a_12'
p797
F0.50685633333333335
sS'100_1_0_3_Da2a_Fa36a_8'
p798
F0.099549733333333335
sS'80_8_0__Da8a_Fa36a_2'
p799
F3.1831650000000002
sS'80_8_0__Da8a_Fa36a_1'
p800
F3.0337650000000003
sS'100_1_0_3_Da2a_Fa24a_4'
p801
F0.13384266666666667
sS'80_8_0____12'
p802
F3.1019466666666666
sS'30_1_0__Da8a_Fa6a_12'
p803
F0.0058825216666666671
sS'80_3_0__Da4a_Fa6a_12'
p804
F0.45716433333333334
sS'100_1_0__Da2a__4'
p805
F1.3569666666666667
sS'80_1_0_3_Da4a_Fa6a_12'
p806
F0.068412083333333332
sS'80_8_0__Da2a__4'
p807
F2.8187500000000001
sS'80_8_0__Da2a__1'
p808
F3.0441533333333335
sS'80_8_0__Da2a__2'
p809
F4.7628433333333327
sS'30_8_0_3__Fa36a_12'
p810
F0.059638549999999992
sS'80_8_0__Da2a__8'
p811
F1.9340233333333332
sS'100_1_0__Da2a__8'
p812
F1.0393466666666666
sS'80_8_0_3__Fa6a_8'
p813
F1.2387550000000001
sS'100_1_0__Da2a__2'
p814
F1.8147216666666666
sS'100_1_0__Da2a__1'
p815
F0.14859033333333335
sS'80_3_0__Da4a_Fa12a_12'
p816
F0.28934949999999998
sS'30_3_0_3__Fa12a_4'
p817
F0.014851349999999999
sS'100_3_0____2'
p818
F7.2763349999999987
sS'30_3_0_3__Fa12a_1'
p819
F0.019372433333333331
sS'30_3_0_3__Fa12a_2'
p820
F0.022278333333333334
sS'100_8_0_3_Da4a__12'
p821
F1.7989300000000001
sS'30_3_0_3__Fa12a_8'
p822
F0.012801816666666667
sS'30_3_0__Da12a_Fa6a_8'
p823
F0.026204133333333334
sS'30_1_0_3_Da8a_Fa18a_8'
p824
F0.0035235266666666671
sS'30_1_0_3_Da8a_Fa18a_4'
p825
F0.0034826616666666665
sS'30_1_0_3_Da8a_Fa18a_1'
p826
F0.0037630183333333335
sS'100_8_0_3_Da2a_Fa18a_12'
p827
F1.8794216666666665
sS'80_1_0__Da8a_Fa24a_12'
p828
F0.063541283333333323
sS'80_1_0__Da8a_Fa24a_8'
p829
F0.075145399999999987
sS'30_8_0__Da8a_Fa18a_12'
p830
F0.067446933333333334
sS'80_1_0__Da8a_Fa24a_4'
p831
F0.12164316666666668
sS'80_3_0__Da12a_Fa36a_12'
p832
F0.25173283333333335
sS'80_1_0__Da8a_Fa24a_1'
p833
F0.075225199999999992
sS'100_8_0__Da2a_Fa6a_4'
p834
F4.9682733333333333
sS'80_1_0__Da8a_Fa24a_2'
p835
F0.21844933333333336
sS'100_8_0__Da4a_Fa6a_8'
p836
F3.9741233333333335
sS'spe10_3_0_3_Da8a_Fa6a_12'
p837
F1.6510366666666669
sS'100_8_0__Da4a_Fa6a_4'
p838
F5.4458483333333341
sS'100_8_0__Da4a_Fa6a_2'
p839
F7.9946966666666661
sS'100_8_0__Da4a_Fa6a_1'
p840
F5.9685300000000003
sS'100_8_0___Fa12a_12'
p841
F2.7071316666666667
sS'100_3_0__Da8a_Fa36a_1'
p842
F0.64483166666666658
sS'100_3_0__Da8a_Fa36a_2'
p843
F1.5382499999999999
sS'100_3_0__Da8a_Fa36a_4'
p844
F0.85219383333333332
sS'80_8_0_3_Da8a_Fa36a_8'
p845
F1.0252600000000001
sS'100_3_0__Da8a_Fa36a_8'
p846
F0.51180100000000006
sS'80_8_0_3_Da8a_Fa36a_4'
p847
F1.1442966666666667
sS'100_8_0_3_Da4a_Fa6a_2'
p848
F3.3471533333333334
sS'80_8_0_3_Da8a_Fa36a_1'
p849
F3.0272000000000001
sS'80_8_0_3_Da8a_Fa36a_2'
p850
F1.7175
sS'80_1_0__Da4a_Fa24a_8'
p851
F0.10103033333333333
sS'100_1_0_3_Da12a_Fa24a_4'
p852
F0.10606383333333334
sS'100_1_0_3_Da12a_Fa24a_2'
p853
F0.15320149999999999
sS'100_1_0_3_Da12a_Fa24a_1'
p854
F0.1483225
sS'80_1_0__Da4a_Fa24a_1'
p855
F0.075502216666666663
sS'80_1_0__Da4a_Fa24a_2'
p856
F0.2802965
sS'80_1_0__Da4a_Fa24a_4'
p857
F0.15858066666666668
sS'100_1_0_3_Da12a_Fa24a_8'
p858
F0.089431250000000004
sS'80_3_0___Fa36a_8'
p859
F0.2920861666666667
sS'30_8_0__Da2a__12'
p860
F0.092404516666666658
sS'80_3_0___Fa36a_1'
p861
F0.32890616666666667
sS'80_3_0___Fa36a_2'
p862
F0.8802566666666668
sS'80_3_0___Fa36a_4'
p863
F0.48343183333333334
sS'100_8_0__Da8a_Fa18a_12'
p864
F2.3846966666666671
sS'80_8_0__Da12a_Fa6a_12'
p865
F2.1613583333333337
sS'80_3_0__Da12a_Fa18a_12'
p866
F0.28243433333333329
sS'100_1_0_3_Da8a_Fa12a_2'
p867
F0.16230933333333333
sS'30_3_0__Da4a_Fa36a_4'
p868
F0.034891116666666666
sS'100_3_0_3_Da4a_Fa36a_1'
p869
F0.64569683333333339
sS'100_8_0_3__Fa36a_12'
p870
F1.7866316666666666
sS'30_3_0__Da4a_Fa36a_1'
p871
F0.019345966666666665
sS'30_3_0__Da4a_Fa36a_2'
p872
F0.059520166666666673
sS'30_8_0__Da12a_Fa24a_12'
p873
F0.07434233333333333
sS'30_3_0__Da4a_Fa36a_8'
p874
F0.022567483333333336
sS'100_1_0_3_Da2a__12'
p875
F0.092409166666666667
sS'80_8_0__Da2a_Fa18a_12'
p876
F1.2824783333333334
sS'80_8_0__Da2a_Fa36a_8'
p877
F1.3049333333333333
sS'30_1_0_3_Da12a_Fa12a_1'
p878
F0.00373245
sS'80_8_0__Da8a_Fa24a_1'
p879
F3.0292833333333333
sS'30_8_0__Da12a__4'
p880
F0.11738416666666666
sS'30_8_0__Da12a__2'
p881
F0.20340133333333332
sS'80_1_0__Da2a__8'
p882
F0.52748150000000005
sS'30_8_0__Da12a__1'
p883
F0.17081616666666666
sS'80_8_0__Da8a_Fa24a_8'
p884
F1.2315433333333332
sS'100_1_0__Da8a__4'
p885
F0.45703549999999998
sS'80_1_0__Da2a__4'
p886
F0.68720950000000014
sS'30_1_0_3_Da2a_Fa18a_4'
p887
F0.0041736249999999994
sS'80_1_0__Da2a__2'
p888
F0.97333500000000006
sS'30_1_0_3_Da2a_Fa18a_2'
p889
F0.0065026850000000002
sS'30_8_0__Da12a__8'
p890
F0.079196349999999985
sS'80_1_0__Da2a__1'
p891
F0.075093400000000005
sS'spe10_3_0__Da12a_Fa6a_2'
p892
F6.2293249999999993
sS'80_8_0__Da12a__12'
p893
F1.2248249999999998
sS'spe10_3_0___Fa18a_12'
p894
F1.5778283333333334
sS'spe10_3_0__Da12a_Fa6a_1'
p895
F2.0904666666666669
sS'spe10_3_0__Da12a_Fa6a_4'
p896
F4.5039499999999997
sS'30_3_0__Da2a_Fa24a_4'
p897
F0.032054283333333329
sS'spe10_3_0__Da12a_Fa6a_8'
p898
F2.7998350000000003
sS'80_1_0__Da12a_Fa6a_1'
p899
F0.075019316666666669
sS'100_1_0__Da8a__8'
p900
F0.32259816666666663
sS'80_3_0__Da8a_Fa12a_8'
p901
F0.27663816666666663
sS'80_8_0_3_Da4a_Fa36a_12'
p902
F0.93567400000000001
sS'30_8_0__Da2a__8'
p903
F0.10524866666666667
sS'80_3_0__Da8a_Fa12a_2'
p904
F0.77762533333333339
sS'30_8_0__Da2a__4'
p905
F0.15459616666666665
sS'80_3_0__Da8a_Fa12a_1'
p906
F0.32859450000000007
sS'30_8_0__Da2a__2'
p907
F0.25863816666666667
sS'80_3_0__Da8a_Fa12a_4'
p908
F0.42961016666666674
sS'30_8_0__Da2a__1'
p909
F0.17191399999999998
sS'80_8_0__Da2a_Fa36a_2'
p910
F3.5834949999999997
sS'100_3_0_3_Da4a_Fa6a_8'
p911
F0.37740166666666664
sS'100_3_0_3_Da4a_Fa6a_4'
p912
F0.37089666666666671
sS'100_3_0_3_Da4a_Fa6a_2'
p913
F0.48765616666666672
sS'30_3_0_3_Da2a_Fa36a_12'
p914
F0.013537600000000002
sS'30_8_0_3_Da2a_Fa36a_1'
p915
F0.17114466666666669
sS'30_8_0_3_Da2a_Fa36a_2'
p916
F0.1067205
sS'30_8_0_3_Da2a_Fa36a_4'
p917
F0.071297933333333341
sS'30_3_0_3_Da12a_Fa36a_12'
p918
F0.015072866666666665
sS'30_8_0_3_Da2a_Fa36a_8'
p919
F0.065558816666666672
sS'80_3_0_3__Fa6a_1'
p920
F0.32900116666666668
sS'spe10_3_0__Da4a_Fa12a_12'
p921
F1.8598816666666664
sS'80_3_0_3__Fa6a_4'
p922
F0.21269533333333335
sS'spe10_3_0_3_Da4a_Fa6a_4'
p923
F1.4712966666666665
sS'spe10_3_0__Da2a_Fa24a_2'
p924
F5.6692299999999998
sS'spe10_3_0__Da2a_Fa24a_1'
p925
F2.0946216666666668
sS'80_8_0_3_Da8a_Fa6a_2'
p926
F1.719625
sS'30_1_0___Fa18a_12'
p927
F0.006221246666666666
sS'spe10_3_0_3_Da4a_Fa6a_2'
p928
F1.9604833333333334
sS'spe10_3_0__Da2a_Fa24a_4'
p929
F3.1314449999999998
sS'30_3_0__Da8a_Fa18a_4'
p930
F0.026008483333333332
sS'spe10_3_0__Da2a_Fa24a_8'
p931
F1.8963133333333335
sS'spe10_3_0_3_Da4a_Fa6a_8'
p932
F1.5625133333333334
sS'30_3_0__Da8a_Fa18a_2'
p933
F0.045522550000000002
sS'100_1_0__Da4a_Fa6a_4'
p934
F0.36487949999999997
sS'30_1_0____12'
p935
F0.058815433333333333
sS'80_1_0_3_Da12a_Fa12a_12'
p936
F0.051591066666666664
sS'100_1_0__Da4a_Fa6a_1'
p937
F0.14802016666666665
sS'100_1_0__Da4a_Fa6a_2'
p938
F0.56665149999999997
sS'100_1_0_3_Da12a_Fa24a_12'
p939
F0.089664683333333328
sS'100_1_0__Da4a_Fa6a_8'
p940
F0.27823466666666669
sS'spe10_3_0___Fa12a_8'
p941
F1.9692783333333332
sS'spe10_3_0___Fa12a_1'
p942
F2.0853950000000001
sS'spe10_3_0___Fa12a_2'
p943
F5.5655949999999992
sS'spe10_3_0___Fa12a_4'
p944
F3.0728666666666666
sS'100_8_0_3_Da12a_Fa36a_8'
p945
F1.9424333333333335
sS'30_8_0_3_Da8a_Fa24a_12'
p946
F0.090751666666666661
sS'100_3_0_3_Da8a_Fa6a_2'
p947
F0.474802
sS'100_8_0_3_Da12a_Fa36a_1'
p948
F5.9516266666666668
sS'100_8_0_3_Da12a_Fa36a_2'
p949
F3.3332366666666666
sS'80_1_0___Fa6a_12'
p950
F0.15561616666666667
sS'100_8_0_3_Da12a_Fa36a_4'
p951
F2.2050766666666668
sS'30_1_0__Da2a_Fa6a_4'
p952
F0.0088949316666666681
sS'100_8_0__Da12a_Fa18a_8'
p953
F2.9438
sS'30_1_0__Da2a_Fa6a_1'
p954
F0.0037390400000000008
sS'spe10_3_0_3_Da4a_Fa24a_12'
p955
F1.1122733333333332
sS'100_8_0__Da12a_Fa18a_2'
p956
F7.3341283333333331
sS'100_8_0__Da12a_Fa18a_1'
p957
F5.9388750000000003
sS'30_1_0__Da2a_Fa6a_8'
p958
F0.0081233866666666679
sS'100_8_0__Da12a_Fa18a_4'
p959
F4.2316200000000004
sS'30_3_0_3__Fa36a_4'
p960
F0.015243283333333331
sS'80_1_0__Da2a_Fa36a_8'
p961
F0.091234366666666664
sS'30_3_0_3__Fa36a_2'
p962
F0.023044066666666668
sS'30_3_0_3__Fa36a_1'
p963
F0.019370283333333335
sS'80_1_0__Da2a_Fa36a_4'
p964
F0.14676633333333333
sS'80_1_0__Da2a_Fa36a_1'
p965
F0.074886950000000008
sS'80_1_0__Da2a_Fa36a_2'
p966
F0.26137299999999997
sS'30_3_0_3__Fa36a_8'
p967
F0.012257266666666667
sS'spe10_3_0_3_Da12a_Fa6a_2'
p968
F1.8038399999999999
sS'spe10_3_0_3_Da12a_Fa6a_1'
p969
F2.1288416666666667
sS'100_3_0____4'
p970
F4.8852166666666665
sS'spe10_3_0_3_Da12a_Fa6a_4'
p971
F1.3936916666666666
sS'spe10_3_0_3_Da12a_Fa6a_8'
p972
F1.4807616666666668
sS'30_1_0__Da12a_Fa12a_12'
p973
F0.0062073516666666662
sS'80_8_0_3_Da4a_Fa36a_4'
p974
F1.11968
sS'30_3_0__Da2a_Fa18a_2'
p975
F0.052736300000000007
sS'30_3_0__Da2a_Fa18a_1'
p976
F0.019471733333333335
sS'30_3_0__Da2a_Fa18a_4'
p977
F0.031265666666666671
sS'30_3_0__Da12a_Fa24a_2'
p978
F0.054398850000000006
sS'30_3_0__Da2a_Fa18a_8'
p979
F0.020562649999999998
sS'30_8_0_3_Da8a_Fa36a_4'
p980
F0.076983583333333327
sS'30_8_0_3_Da8a_Fa36a_2'
p981
F0.1053615
sS'30_8_0_3_Da8a_Fa36a_1'
p982
F0.17104916666666667
sS'30_8_0_3_Da8a_Fa36a_8'
p983
F0.080648183333333331
sS'80_8_0___Fa36a_12'
p984
F1.1322966666666667
sS'100_3_0_3__Fa18a_12'
p985
F0.31660783333333337
sS'30_3_0_3___4'
p986
F0.015368466666666665
sS'100_1_0__Da8a_Fa18a_12'
p987
F0.12998466666666667
sS'100_8_0__Da4a_Fa24a_12'
p988
F2.515555
sS'100_1_0_3_Da8a_Fa36a_8'
p989
F0.090630116666666663
sS'80_8_0__Da4a_Fa6a_2'
p990
F3.795128333333333
sS'100_1_0_3_Da8a_Fa36a_4'
p991
F0.11054849999999999
sS'100_1_0_3_Da8a_Fa36a_2'
p992
F0.16327550000000002
sS'80_8_0__Da4a_Fa6a_1'
p993
F3.0359683333333329
sS'100_1_0_3_Da8a_Fa36a_1'
p994
F0.14911666666666668
sS'spe10_3_0_3___1'
p995
F2.0940183333333331
sS'spe10_3_0_3___2'
p996
F2.7224650000000001
sS'spe10_3_0_3___4'
p997
F1.7200083333333334
sS'30_1_0_3__Fa6a_1'
p998
F0.0037187433333333332
sS'30_1_0_3__Fa6a_2'
p999
F0.0068738583333333341
sS'30_1_0_3__Fa6a_4'
p1000
F0.0047299266666666661
sS'80_1_0_3_Da12a_Fa36a_8'
p1001
F0.046516483333333331
sS'30_1_0_3_Da2a__8'
p1002
F0.0034407816666666667
sS'80_1_0__Da8a_Fa12a_8'
p1003
F0.081619966666666668
sS'100_8_0__Da8a_Fa36a_2'
p1004
F6.6093366666666675
sS'100_8_0__Da8a_Fa36a_1'
p1005
F5.9487516666666664
sS'80_1_0__Da8a_Fa12a_4'
p1006
F0.12176750000000001
sS'30_1_0_3_Da2a__2'
p1007
F0.0065388200000000007
sS'30_1_0_3_Da2a__1'
p1008
F0.0037864533333333335
sS'80_8_0__Da4a_Fa6a_4'
p1009
F2.7256249999999995
sS'80_1_0_3_Da12a_Fa36a_4'
p1010
F0.054768099999999993
sS'80_1_0__Da8a_Fa12a_1'
p1011
F0.075254000000000001
sS'80_1_0__Da8a_Fa12a_2'
p1012
F0.21771566666666667
sS'30_1_0_3_Da2a__4'
p1013
F0.004209445
sS'80_3_0_3_Da4a_Fa24a_8'
p1014
F0.15902933333333333
sS'30_1_0__Da4a_Fa24a_4'
p1015
F0.0095443233333333335
sS'80_8_0__Da4a_Fa6a_8'
p1016
F1.9362816666666667
sS'30_1_0__Da4a_Fa24a_1'
p1017
F0.0037776400000000001
sS'30_1_0__Da4a_Fa24a_2'
p1018
F0.015100883333333334
sS'30_1_0__Da4a_Fa24a_8'
p1019
F0.0069496533333333332
sS'80_1_0__Da8a_Fa36a_12'
p1020
F0.062184166666666672
sS'100_8_0__Da4a_Fa18a_2'
p1021
F7.5790000000000006
sS'100_8_0__Da4a_Fa18a_1'
p1022
F5.9653283333333329
sS'30_1_0_3__Fa18a_8'
p1023
F0.0036400100000000004
sS'100_8_0__Da4a_Fa18a_4'
p1024
F4.3230750000000002
sS'30_1_0_3__Fa18a_4'
p1025
F0.0047554466666666672
sS'100_8_0__Da4a_Fa18a_8'
p1026
F2.9150450000000006
sS'30_1_0_3__Fa18a_1'
p1027
F0.0037113416666666667
sS'80_3_0_3_Da4a_Fa24a_1'
p1028
F0.32825966666666662
sS'30_1_0_3__Fa18a_2'
p1029
F0.0072882633333333337
sS'80_8_0_3___12'
p1030
F0.91716583333333335
sS'30_8_0_3_Da4a_Fa24a_8'
p1031
F0.064847433333333329
sS'80_1_0_3_Da4a_Fa18a_8'
p1032
F0.048102983333333342
sS'30_8_0_3_Da4a_Fa24a_4'
p1033
F0.070074000000000011
sS'80_1_0_3_Da4a_Fa18a_4'
p1034
F0.0601738
sS'30_8_0_3_Da4a_Fa24a_1'
p1035
F0.17059633333333335
sS'30_8_0_3_Da4a_Fa24a_2'
p1036
F0.1049655
sS'100_8_0__Da2a_Fa36a_4'
p1037
F4.057293333333333
sS'80_1_0_3__Fa18a_8'
p1038
F0.055983116666666659
sS'80_1_0_3_Da12a_Fa6a_12'
p1039
F0.065743733333333346
sS'100_8_0_3_Da8a_Fa36a_12'
p1040
F1.9363966666666663
sS'80_3_0_3_Da2a_Fa12a_8'
p1041
F0.169461
sS'80_3_0_3_Da2a_Fa12a_4'
p1042
F0.19551883333333334
sS'spe10_3_0__Da8a_Fa18a_12'
p1043
F2.1045833333333337
sS'80_3_0_3_Da2a_Fa12a_1'
p1044
F0.32850466666666667
sS'80_3_0_3_Da2a_Fa12a_2'
p1045
F0.28599749999999996
sS'100_1_0__Da8a__12'
p1046
F0.27977133333333337
sS'100_3_0__Da12a_Fa36a_4'
p1047
F0.96905633333333341
sS'80_1_0__Da4a_Fa6a_1'
p1048
F0.075083266666666662
sS'spe10_3_0_3_Da4a_Fa24a_8'
p1049
F1.1069916666666668
sS'100_3_0__Da12a_Fa36a_1'
p1050
F0.64585433333333331
sS'spe10_3_0_3_Da4a_Fa24a_4'
p1051
F1.3492116666666665
sS'spe10_3_0_3_Da4a_Fa24a_1'
p1052
F2.0845983333333336
sS'100_3_0__Da12a_Fa36a_8'
p1053
F0.59144733333333332
sS'spe10_3_0_3_Da4a_Fa24a_2'
p1054
F2.025255
sS'100_3_0__Da12a_Fa12a_1'
p1055
F0.64505083333333335
sS'80_8_0_3_Da8a_Fa6a_4'
p1056
F1.2343950000000001
sS'80_3_0__Da12a__1'
p1057
F0.32867233333333334
sS'80_3_0__Da12a__2'
p1058
F1.0695233333333334
sS'80_3_0__Da12a__4'
p1059
F0.61026466666666679
sS'30_3_0_3_Da2a_Fa18a_8'
p1060
F0.012685483333333332
sS'80_3_0__Da12a__8'
p1061
F0.37468333333333326
sS'30_3_0_3_Da2a_Fa18a_4'
p1062
F0.014278400000000002
sS'100_3_0__Da8a_Fa6a_1'
p1063
F0.6457208333333333
sS'30_3_0_3_Da2a_Fa18a_1'
p1064
F0.019301450000000001
sS'100_8_0_3__Fa18a_4'
p1065
F2.2445266666666668
sS'100_3_0__Da8a_Fa6a_4'
p1066
F0.91266133333333344
sS'30_3_0_3_Da2a_Fa18a_2'
p1067
F0.020963099999999998
sS'100_3_0_3_Da2a_Fa6a_1'
p1068
F0.64783166666666669
sS'100_3_0_3_Da2a_Fa6a_2'
p1069
F0.53671266666666662
sS'100_3_0_3_Da2a_Fa6a_4'
p1070
F0.39151516666666669
sS'100_3_0_3_Da2a_Fa6a_8'
p1071
F0.39257716666666664
sS'100_1_0__Da2a_Fa6a_12'
p1072
F0.2998905
sS'100_1_0___Fa18a_12'
p1073
F0.16264566666666669
sS'100_1_0__Da12a_Fa12a_12'
p1074
F0.17969599999999999
sS'spe10_3_0_3_Da12a_Fa12a_12'
p1075
F1.2920966666666667
sS'80_8_0__Da12a_Fa18a_1'
p1076
F3.0346150000000001
sS'100_3_0_3_Da4a_Fa24a_8'
p1077
F0.30591333333333337
sS'100_1_0_3_Da12a_Fa12a_12'
p1078
F0.096493050000000011
sS'100_3_0___Fa12a_12'
p1079
F0.55333683333333328
sS'100_3_0_3_Da4a_Fa24a_2'
p1080
F0.50258583333333329
sS'100_3_0__Da8a_Fa6a_12'
p1081
F0.75552883333333332
sS'80_1_0__Da4a_Fa6a_4'
p1082
F0.19115116666666665
sS'spe10_3_0__Da4a__1'
p1083
F2.0904833333333332
sS'spe10_3_0__Da8a_Fa12a_8'
p1084
F2.6487933333333333
sS'100_8_0__Da8a_Fa24a_4'
p1085
F3.6918316666666668
sS'spe10_3_0__Da4a_Fa6a_12'
p1086
F2.9825016666666664
sS'spe10_3_0__Da8a_Fa12a_1'
p1087
F2.0776650000000001
sS'spe10_3_0__Da8a_Fa12a_2'
p1088
F6.1659766666666664
sS'spe10_3_0__Da8a_Fa12a_4'
p1089
F3.5774183333333327
sS'30_8_0_3_Da8a_Fa24a_1'
p1090
F0.17126866666666665
sS'100_1_0__Da8a__1'
p1091
F0.14921466666666669
sS'80_1_0_3__Fa24a_8'
p1092
F0.056415416666666662
sS'30_1_0__Da4a_Fa12a_12'
p1093
F0.0068534366666666664
sS'100_1_0_3_Da2a__2'
p1094
F0.22116283333333331
sS'100_8_0_3_Da4a_Fa12a_8'
p1095
F1.9544483333333333
sS'80_8_0_3_Da8a_Fa12a_8'
p1096
F1.0706266666666668
sS'80_8_0_3_Da8a_Fa12a_4'
p1097
F1.1595466666666667
sS'80_8_0_3_Da8a_Fa12a_2'
p1098
F1.7101616666666664
sS'80_8_0_3_Da8a_Fa12a_1'
p1099
F3.0315133333333333
sS'spe10_3_0__Da2a__2'
p1100
F11.397649999999999
sS'80_8_0_3_Da12a__4'
p1101
F1.1327966666666667
sS'spe10_3_0__Da2a__1'
p1102
F2.0885366666666667
sS'80_8_0_3_Da12a__1'
p1103
F3.0283616666666666
sS'100_3_0_3_Da2a_Fa18a_8'
p1104
F0.31571149999999998
sS'spe10_3_0__Da2a__4'
p1105
F7.4458983333333331
sS'80_8_0_3_Da12a__2'
p1106
F1.7043033333333335
sS'spe10_3_0__Da2a__8'
p1107
F5.3878633333333328
sS'80_8_0_3_Da12a__8'
p1108
F1.0033633333333334
sS'80_8_0_3_Da2a_Fa12a_12'
p1109
F1.0887666666666667
sS'80_8_0___Fa24a_12'
p1110
F1.1594249999999999
sS'100_8_0_3_Da4a_Fa12a_1'
p1111
F5.9392299999999993
sS'30_1_0_3_Da8a_Fa6a_1'
p1112
F0.0037563683333333331
sS'30_1_0_3_Da8a_Fa6a_2'
p1113
F0.0046881783333333335
sS'30_1_0_3_Da8a_Fa6a_4'
p1114
F0.0034626650000000002
sS'30_1_0_3_Da8a_Fa6a_8'
p1115
F0.0036447016666666669
sS'80_8_0_3_Da4a_Fa24a_8'
p1116
F0.95679799999999993
sS'30_3_0__Da8a_Fa18a_12'
p1117
F0.014711683333333335
sS'80_1_0_3__Fa6a_8'
p1118
F0.074385133333333339
sS'80_8_0_3___1'
p1119
F3.0299816666666666
sS'80_1_0___Fa18a_4'
p1120
F0.14681433333333332
sS'80_1_0___Fa18a_2'
p1121
F0.26434183333333333
sS'80_1_0___Fa18a_1'
p1122
F0.074952533333333335
sS'80_1_0_3__Fa6a_1'
p1123
F0.075069233333333332
sS'30_3_0__Da8a_Fa18a_8'
p1124
F0.016695133333333334
sS'100_3_0_3_Da2a_Fa18a_1'
p1125
F0.64494949999999995
sS'80_1_0_3__Fa6a_4'
p1126
F0.079809383333333331
sS'80_1_0___Fa18a_8'
p1127
F0.092739050000000003
sS'80_8_0_3_Da12a_Fa6a_4'
p1128
F1.2390650000000001
sS'80_8_0_3___4'
p1129
F1.1630716666666669
sS'100_1_0__Da2a_Fa6a_2'
p1130
F0.5006005
sS'100_8_0___Fa36a_4'
p1131
F4.0350466666666671
sS'100_1_0__Da2a_Fa6a_1'
p1132
F0.14950166666666667
sS'100_1_0__Da2a_Fa6a_4'
p1133
F0.31761349999999999
sS'spe10_3_0_3_Da12a_Fa6a_12'
p1134
F1.6387583333333335
sS'100_3_0_3_Da12a_Fa36a_12'
p1135
F0.31334533333333331
sS'80_1_0_3_Da4a_Fa12a_12'
p1136
F0.05174083333333334
sS'80_1_0__Da12a_Fa12a_8'
p1137
F0.11211733333333333
sS'80_1_0__Da12a_Fa12a_4'
p1138
F0.15275150000000001
sS'80_1_0__Da12a_Fa12a_2'
p1139
F0.26352816666666673
sS'30_1_0_3_Da2a_Fa36a_12'
p1140
F0.00352572
sS'80_1_0__Da12a_Fa12a_1'
p1141
F0.076245649999999998
sS'100_1_0_3_Da12a_Fa36a_1'
p1142
F0.14898349999999999
sS'100_1_0_3_Da12a_Fa36a_2'
p1143
F0.15303633333333333
sS'100_1_0_3_Da12a_Fa36a_4'
p1144
F0.10625333333333331
sS'100_1_0_3_Da12a_Fa36a_8'
p1145
F0.089622099999999996
sS'80_3_0__Da8a_Fa24a_12'
p1146
F0.21054416666666667
sS'100_1_0__Da2a_Fa36a_12'
p1147
F0.1446365
sS'30_1_0__Da4a_Fa6a_2'
p1148
F0.012800399999999998
sS'30_1_0__Da4a_Fa6a_1'
p1149
F0.0037532266666666669
sS'30_1_0__Da4a_Fa6a_4'
p1150
F0.009384343333333333
sS'30_3_0__Da2a__12'
p1151
F0.042808249999999999
sS'30_1_0__Da4a_Fa6a_8'
p1152
F0.0080790483333333333
sS'30_1_0__Da4a__12'
p1153
F0.012955716666666667
sS'spe10_3_0_3__Fa12a_12'
p1154
F1.4146333333333334
sS'80_8_0__Da4a_Fa18a_4'
p1155
F2.072036666666667
sS'80_8_0__Da4a_Fa18a_2'
p1156
F3.6120033333333335
sS'80_8_0__Da4a_Fa18a_1'
p1157
F3.0277350000000003
sS'100_8_0___Fa12a_1'
p1158
F5.9724966666666672
sS'30_1_0_3_Da8a_Fa24a_1'
p1159
F0.00378524
sS'30_8_0__Da8a_Fa6a_12'
p1160
F0.10744583333333334
sS'80_3_0__Da8a_Fa6a_12'
p1161
F0.38244450000000002
sS'80_8_0__Da4a_Fa18a_8'
p1162
F1.4204133333333333
sS'80_8_0_3_Da4a_Fa6a_4'
p1163
F1.2300583333333333
sS'80_8_0_3_Da4a_Fa6a_1'
p1164
F3.0356833333333335
sS'80_8_0_3_Da4a_Fa6a_2'
p1165
F1.7199766666666669
sS'100_8_0_3__Fa18a_2'
p1166
F3.5053649999999998
sS'100_8_0___Fa12a_2'
p1167
F7.3984816666666662
sS'80_8_0_3_Da4a_Fa6a_8'
p1168
F1.2386966666666668
sS'100_1_0_3_Da12a__12'
p1169
F0.089701666666666666
sS'100_3_0__Da4a__4'
p1170
F1.5983366666666667
sS'100_3_0__Da4a__2'
p1171
F2.6916716666666667
sS'100_3_0__Da4a__1'
p1172
F0.65147216666666663
sS'100_3_0__Da4a__8'
p1173
F1.04755
sS'30_3_0__Da12a_Fa24a_4'
p1174
F0.031327000000000001
sS'80_1_0__Da12a_Fa36a_12'
p1175
F0.08471158333333334
sS'30_3_0__Da12a_Fa24a_1'
p1176
F0.019268983333333333
sS'80_3_0__Da4a_Fa18a_8'
p1177
F0.31789600000000001
sS'80_1_0_3__Fa36a_12'
p1178
F0.051409049999999991
sS'30_3_0__Da12a_Fa24a_8'
p1179
F0.020390750000000003
sS'100_8_0___Fa12a_8'
p1180
F2.9945283333333332
sS'30_1_0_3_Da12a_Fa18a_12'
p1181
F0.0033123649999999998
sS'100_8_0_3__Fa12a_1'
p1182
F5.9588833333333326
sS'30_8_0__Da12a__12'
p1183
F0.071003150000000001
sS'80_3_0_3_Da4a_Fa24a_2'
p1184
F0.2559123333333333
sS'30_1_0_3_Da8a_Fa24a_12'
p1185
F0.0036397083333333329
sS'80_3_0_3_Da4a_Fa24a_4'
p1186
F0.18278849999999999
sS'80_3_0__Da4a_Fa36a_12'
p1187
F0.25397583333333335
sS'80_3_0__Da2a__12'
p1188
F0.7467313333333333
sS'100_3_0_3_Da4a__12'
p1189
F0.29794683333333333
sS'spe10_3_0__Da2a_Fa18a_12'
p1190
F1.6796450000000001
sS'80_8_0__Da8a_Fa24a_2'
p1191
F3.2277183333333337
sS'100_3_0_3_Da2a__4'
p1192
F0.38126600000000005
sS'80_8_0_3_Da2a_Fa24a_1'
p1193
F3.0347666666666666
sS'100_1_0__Da4a_Fa36a_12'
p1194
F0.16317100000000001
sS'100_3_0_3_Da12a_Fa36a_2'
p1195
F0.4721691666666667
sS'30_1_0__Da4a_Fa36a_2'
p1196
F0.016575999999999997
sS'30_1_0__Da4a_Fa36a_1'
p1197
F0.003669135
sS'30_1_0__Da4a_Fa36a_4'
p1198
F0.010837783333333332
sS'30_1_0__Da4a_Fa36a_8'
p1199
F0.0078891433333333344
sS'100_3_0_3_Da2a__1'
p1200
F0.64600649999999993
sS'100_3_0_3_Da2a__2'
p1201
F0.55265683333333337
sS'30_8_0__Da12a_Fa36a_12'
p1202
F0.071030033333333339
sS'100_1_0_3_Da2a_Fa12a_8'
p1203
F0.10126083333333334
sS'100_3_0_3_Da2a__8'
p1204
F0.31727016666666669
sS'80_3_0__Da12a_Fa12a_4'
p1205
F0.50099016666666674
sS'80_8_0__Da4a_Fa36a_2'
p1206
F3.6332249999999999
sS'30_8_0_3_Da12a_Fa12a_12'
p1207
F0.093147516666666652
sS'80_3_0__Da12a_Fa12a_1'
p1208
F0.32811966666666664
sS'80_3_0__Da12a_Fa12a_2'
p1209
F0.88411283333333313
sS'80_8_0__Da4a_Fa36a_4'
p1210
F2.0427499999999998
sS'100_1_0__Da12a_Fa6a_4'
p1211
F0.35919033333333333
sS'80_8_0__Da4a_Fa36a_8'
p1212
F1.3453316666666666
sS'80_3_0__Da12a_Fa12a_8'
p1213
F0.35522466666666669
sS'100_1_0_3_Da2a_Fa12a_4'
p1214
F0.13160883333333331
sS'100_1_0__Da12a_Fa6a_1'
p1215
F0.14898866666666666
sS'80_8_0__Da4a_Fa24a_4'
p1216
F2.0447816666666667
sS'100_8_0_3_Da4a_Fa36a_8'
p1217
F1.8418300000000001
sS'80_8_0__Da4a_Fa24a_1'
p1218
F3.0364866666666668
sS'80_8_0__Da4a_Fa24a_2'
p1219
F3.6145650000000002
sS'100_8_0_3_Da4a_Fa36a_1'
p1220
F5.9667283333333332
sS'100_1_0_3_Da2a_Fa12a_2'
p1221
F0.21397350000000001
sS'100_3_0__Da12a_Fa6a_2'
p1222
F1.7775749999999999
sS'100_8_0_3_Da4a_Fa36a_2'
p1223
F3.3363
sS'80_8_0__Da4a_Fa24a_8'
p1224
F1.3761200000000002
sS'80_8_0__Da4a_Fa36a_1'
p1225
F3.0391499999999998
sS'100_8_0_3_Da12a_Fa6a_12'
p1226
F2.8947233333333333
sS'30_3_0_3_Da4a_Fa6a_8'
p1227
F0.014110549999999999
sS'100_1_0__Da12a_Fa6a_12'
p1228
F0.28489433333333331
sS'30_3_0_3_Da4a_Fa6a_4'
p1229
F0.013296050000000002
sS'30_3_0_3_Da4a_Fa6a_2'
p1230
F0.016838849999999999
sS'30_3_0_3_Da4a_Fa6a_1'
p1231
F0.019427133333333332
sS'100_8_0__Da12a__4'
p1232
F4.3935849999999999
sS'100_3_0_3_Da12a_Fa36a_1'
p1233
F0.64500666666666673
sS'100_1_0__Da12a_Fa6a_8'
p1234
F0.25485033333333335
sS'80_3_0__Da2a_Fa24a_1'
p1235
F0.32872233333333339
sS'100_1_0_3_Da12a_Fa6a_4'
p1236
F0.10912716666666666
sS'30_3_0_3__Fa12a_12'
p1237
F0.013977900000000001
sS'80_1_0_3_Da4a_Fa12a_8'
p1238
F0.049320783333333333
sS'100_8_0__Da8a_Fa12a_8'
p1239
F2.7862200000000001
sS'80_1_0_3_Da4a_Fa12a_1'
p1240
F0.076081183333333316
sS'80_1_0_3_Da4a_Fa12a_2'
p1241
F0.089730033333333334
sS'80_3_0__Da2a_Fa24a_12'
p1242
F0.24088800000000002
sS'80_1_0_3_Da4a_Fa12a_4'
p1243
F0.059868116666666672
sS'100_8_0__Da8a_Fa12a_2'
p1244
F6.7320666666666673
sS'80_8_0_3_Da8a__1'
p1245
F3.020516666666667
sS'80_3_0_3_Da2a_Fa36a_4'
p1246
F0.19948416666666666
sS'80_8_0_3_Da8a__2'
p1247
F1.7222433333333331
sS'80_3_0_3_Da2a_Fa36a_2'
p1248
F0.28985133333333329
sS'80_8_0_3_Da8a__4'
p1249
F1.1451999999999998
sS'80_3_0_3_Da2a_Fa36a_1'
p1250
F0.33009216666666669
sS'80_8_0_3_Da8a__8'
p1251
F1.0207999999999999
sS'30_8_0_3_Da8a_Fa12a_12'
p1252
F0.091057416666666668
sS'80_3_0_3_Da2a_Fa36a_8'
p1253
F0.16677766666666669
sS'100_3_0__Da2a_Fa24a_1'
p1254
F0.64641716666666671
sS'80_3_0_3__Fa18a_4'
p1255
F0.2022586666666667
sS'100_3_0__Da8a_Fa18a_8'
p1256
F0.514019
sS'80_3_0_3__Fa18a_1'
p1257
F0.32907966666666666
sS'80_3_0_3__Fa18a_2'
p1258
F0.29786799999999997
sS'30_1_0_3_Da4a_Fa6a_12'
p1259
F0.0038121383333333332
sS'100_3_0__Da8a_Fa18a_4'
p1260
F0.84778599999999982
sS'80_3_0_3__Fa18a_8'
p1261
F0.16774616666666667
sS'100_3_0__Da8a_Fa18a_1'
p1262
F0.64504149999999993
sS'100_3_0__Da8a_Fa18a_2'
p1263
F1.5314633333333332
sS'spe10_3_0__Da12a_Fa18a_12'
p1264
F2.1000383333333339
sS'100_3_0__Da12a_Fa6a_8'
p1265
F0.8263421666666666
sS'80_8_0__Da12a__4'
p1266
F2.1951166666666668
sS'30_8_0____8'
p1267
F0.19469233333333333
sS'80_8_0__Da12a__2'
p1268
F3.8805583333333331
sS'80_8_0__Da12a__1'
p1269
F3.0343866666666663
sS'30_8_0____4'
p1270
F0.2668065
sS'100_1_0__Da8a_Fa24a_8'
p1271
F0.14692166666666667
sS'30_8_0____1'
p1272
F0.17054066666666667
sS'30_8_0____2'
p1273
F0.41770133333333331
sS'80_8_0__Da12a__8'
p1274
F1.415095
sS'100_1_0__Da8a_Fa6a_8'
p1275
F0.21783766666666668
sS'30_8_0__Da8a_Fa36a_4'
p1276
F0.09803859999999999
sS'30_8_0__Da8a_Fa36a_2'
p1277
F0.16709766666666667
sS'30_3_0__Da4a_Fa12a_8'
p1278
F0.022391883333333334
sS'80_3_0_3_Da12a_Fa18a_1'
p1279
F0.32872400000000002
sS'100_1_0__Da8a_Fa6a_1'
p1280
F0.15028849999999999
sS'100_1_0__Da8a_Fa6a_2'
p1281
F0.44985366666666665
sS'30_3_0__Da4a_Fa12a_4'
p1282
F0.031801983333333332
sS'100_1_0__Da8a_Fa6a_4'
p1283
F0.26685066666666674
sS'30_3_0__Da4a_Fa12a_2'
p1284
F0.053543416666666656
sS'30_8_0__Da8a_Fa36a_8'
p1285
F0.068219816666666669
sS'30_8_0__Da4a_Fa6a_8'
p1286
F0.10575083333333335
sS'80_8_0___Fa12a_4'
p1287
F2.0201816666666663
sS'30_8_0__Da4a_Fa6a_1'
p1288
F0.17102433333333333
sS'30_8_0__Da4a_Fa6a_2'
p1289
F0.20127433333333333
sS'30_8_0__Da4a_Fa6a_4'
p1290
F0.13681266666666667
sS'80_8_0_3_Da4a__1'
p1291
F3.0309266666666663
sS'spe10_3_0__Da8a_Fa24a_8'
p1292
F2.1388733333333332
sS'100_3_0__Da12a_Fa6a_1'
p1293
F0.64670516666666666
sS'spe10_3_0__Da8a_Fa24a_4'
p1294
F3.3790849999999999
sS'spe10_3_0__Da8a_Fa24a_1'
p1295
F2.0823249999999995
sS'spe10_3_0__Da8a_Fa24a_2'
p1296
F5.9973466666666662
sS'80_8_0__Da8a__12'
p1297
F1.136466666666667
sS'80_3_0__Da2a_Fa36a_8'
p1298
F0.28949633333333336
sS'80_8_0__Da12a_Fa6a_4'
p1299
F2.7726466666666667
sS'30_1_0_3__Fa18a_12'
p1300
F0.003689353333333333
sS'80_3_0__Da2a_Fa36a_2'
p1301
F0.86172133333333323
sS'100_3_0__Da2a_Fa24a_2'
p1302
F1.7107300000000001
sS'80_3_0__Da2a_Fa36a_1'
p1303
F0.32825533333333334
sS'80_3_0__Da2a_Fa36a_4'
p1304
F0.47820133333333331
sS'100_8_0_3_Da4a_Fa36a_4'
p1305
F2.1792983333333331
sS'80_3_0___Fa6a_8'
p1306
F0.41849183333333334
sS'80_1_0_3_Da2a_Fa24a_4'
p1307
F0.072788950000000005
sS'80_3_0_3_Da12a_Fa36a_2'
p1308
F0.24103766666666671
sS'80_1_0_3_Da2a_Fa24a_2'
p1309
F0.11834083333333333
sS'80_1_0_3_Da2a_Fa24a_1'
p1310
F0.076208216666666675
sS'80_3_0_3_Da12a_Fa36a_1'
p1311
F0.32843516666666667
sS'spe10_3_0___Fa6a_12'
p1312
F2.8595416666666669
sS'100_8_0__Da8a_Fa6a_2'
p1313
F6.9804583333333321
sS'100_8_0__Da8a_Fa6a_1'
p1314
F6.0010433333333326
sS'80_3_0___Fa6a_1'
p1315
F0.32908350000000003
sS'80_3_0__Da2a_Fa24a_4'
p1316
F0.47301133333333328
sS'80_3_0___Fa6a_4'
p1317
F0.51564449999999995
sS'80_1_0_3_Da2a_Fa24a_8'
p1318
F0.052651433333333331
sS'80_8_0____8'
p1319
F3.5142799999999998
sS'80_8_0____4'
p1320
F4.8794466666666665
sS'80_8_0____2'
p1321
F7.7643549999999992
sS'80_8_0____1'
p1322
F3.0352600000000005
sS'100_1_0__Da2a_Fa36a_8'
p1323
F0.17242150000000001
sS'100_1_0__Da12a_Fa18a_1'
p1324
F0.14884916666666667
sS'100_1_0__Da12a_Fa18a_2'
p1325
F0.51710200000000006
sS'100_8_0____8'
p1326
F6.9266883333333338
sS'100_1_0__Da12a_Fa18a_4'
p1327
F0.29307866666666665
sS'100_1_0__Da12a_Fa18a_8'
p1328
F0.19106250000000002
sS'100_1_0__Da2a_Fa36a_1'
p1329
F0.14906249999999999
sS'100_1_0__Da2a_Fa36a_2'
p1330
F0.50535849999999993
sS'100_1_0__Da2a_Fa36a_4'
p1331
F0.28040366666666666
sS'80_8_0__Da2a_Fa18a_4'
p1332
F2.0133050000000003
sS'100_8_0____4'
p1333
F9.6261083333333328
sS'100_1_0__Da8a_Fa36a_8'
p1334
F0.14697383333333336
sS'80_1_0_3_Da12a__8'
p1335
F0.046332716666666662
sS'100_8_0_3_Da2a_Fa24a_8'
p1336
F1.868965
sS'80_1_0_3_Da12a__4'
p1337
F0.054607349999999999
sS'80_1_0_3_Da12a__2'
p1338
F0.078648283333333333
sS'30_8_0_3_Da2a_Fa24a_12'
p1339
F0.070755516666666671
sS'80_1_0_3_Da12a__1'
p1340
F0.075267299999999995
sS'80_8_0_3_Da2a_Fa24a_2'
p1341
F1.8081483333333335
sS'100_3_0_3_Da12a_Fa36a_8'
p1342
F0.31012516666666667
sS'80_1_0_3_Da12a_Fa36a_12'
p1343
F0.046950483333333327
sS'100_8_0__Da2a__1'
p1344
F5.9527850000000013
sS'100_1_0__Da12a_Fa36a_2'
p1345
F0.53413933333333341
sS'100_8_0__Da4a_Fa12a_12'
p1346
F2.7560850000000001
sS'100_1_0_3__Fa24a_12'
p1347
F0.095109766666666665
sS'30_1_0___Fa6a_8'
p1348
F0.0083242816666666674
sS'30_1_0___Fa6a_4'
p1349
F0.0083941533333333328
sS'30_1_0___Fa6a_2'
p1350
F0.011321349999999999
sS'30_1_0___Fa6a_1'
p1351
F0.0037575700000000004
sS'100_8_0__Da2a__4'
p1352
F5.6281783333333335
sS'80_3_0__Da2a_Fa24a_8'
p1353
F0.28858683333333329
sS'80_8_0_3__Fa6a_12'
p1354
F1.4690916666666667
sS'100_8_0__Da4a_Fa24a_2'
p1355
F7.5696450000000004
sS'100_8_0__Da12a__2'
p1356
F7.7895649999999996
sS'30_3_0_3_Da12a_Fa18a_8'
p1357
F0.013669433333333333
sS'80_8_0_3_Da2a_Fa12a_8'
p1358
F1.0095683333333332
sS'100_8_0__Da12a__1'
p1359
F5.9567100000000002
sS'30_3_0_3_Da12a_Fa18a_2'
p1360
F0.015977450000000001
sS'30_3_0_3_Da12a_Fa18a_1'
p1361
F0.019404683333333332
sS'100_1_0_3_Da4a_Fa18a_8'
p1362
F0.091509500000000008
sS'30_3_0_3_Da12a_Fa18a_4'
p1363
F0.012833150000000002
sS'spe10_3_0_3_Da4a_Fa12a_4'
p1364
F1.3390550000000001
sS'100_1_0_3_Da4a_Fa36a_8'
p1365
F0.091844200000000001
sS'spe10_3_0_3_Da4a_Fa12a_1'
p1366
F2.0830899999999999
sS'spe10_3_0_3_Da4a_Fa12a_2'
p1367
F1.9619400000000002
sS'100_1_0_3_Da4a_Fa36a_2'
p1368
F0.17651433333333333
sS'100_1_0_3_Da4a_Fa36a_1'
p1369
F0.14894866666666665
sS'spe10_3_0_3_Da4a_Fa12a_8'
p1370
F1.2235966666666667
sS'100_1_0_3_Da4a_Fa36a_4'
p1371
F0.11674216666666666
sS'100_1_0__Da4a_Fa36a_2'
p1372
F0.55919549999999985
sS'30_3_0__Da4a_Fa18a_8'
p1373
F0.021230479999999999
sS'80_3_0_3___12'
p1374
F0.163855
sS'80_8_0_3_Da2a_Fa6a_8'
p1375
F1.2311766666666666
sS'100_8_0___Fa18a_12'
p1376
F2.5226299999999999
sS'100_1_0__Da4a_Fa36a_4'
p1377
F0.31076333333333334
sS'30_3_0__Da4a_Fa18a_1'
p1378
F0.019297099999999998
sS'80_8_0_3_Da2a_Fa6a_2'
p1379
F1.79213
sS'80_8_0_3_Da2a_Fa6a_1'
p1380
F3.0254600000000003
sS'30_3_0__Da4a_Fa18a_2'
p1381
F0.05494318333333334
sS'30_3_0__Da4a_Fa18a_4'
p1382
F0.032086399999999994
sS'80_8_0_3_Da2a_Fa6a_4'
p1383
F1.2297416666666667
sS'100_8_0_3_Da2a_Fa24a_12'
p1384
F1.8185433333333334
sS'100_8_0__Da12a__8'
p1385
F2.83657
sS'80_8_0_3_Da8a_Fa18a_8'
p1386
F1.0202866666666666
sS'30_8_0__Da2a_Fa6a_4'
p1387
F0.12987950000000001
sS'30_8_0__Da2a_Fa6a_2'
p1388
F0.19841416666666667
sS'80_8_0_3_Da4a__8'
p1389
F0.94832433333333332
sS'80_8_0__Da2a_Fa24a_8'
p1390
F1.3200533333333333
sS'30_8_0__Da2a_Fa6a_1'
p1391
F0.17118266666666668
sS'80_8_0_3_Da4a__4'
p1392
F1.1179683333333335
sS'80_8_0__Da2a_Fa24a_4'
p1393
F2.00482
sS'80_1_0_3__Fa24a_12'
p1394
F0.051016216666666669
sS'80_8_0__Da2a_Fa24a_2'
p1395
F3.5665516666666659
sS'30_3_0_3__Fa6a_12'
p1396
F0.017546916666666666
sS'30_8_0__Da2a_Fa6a_8'
p1397
F0.10679916666666668
sS'80_8_0__Da2a_Fa24a_1'
p1398
F3.0333383333333335
sS'100_3_0_3_Da4a_Fa12a_2'
p1399
F0.4946646666666667
sS'30_1_0__Da8a_Fa24a_1'
p1400
F0.0036800866666666667
sS'30_1_0__Da8a_Fa24a_2'
p1401
F0.0090437483333333322
sS'100_3_0_3_Da4a_Fa12a_1'
p1402
F0.64519099999999996
sS'30_1_0__Da8a_Fa24a_4'
p1403
F0.0057934816666666668
sS'100_3_0_3_Da4a_Fa12a_4'
p1404
F0.35619200000000001
sS'30_1_0__Da8a_Fa24a_8'
p1405
F0.0040729583333333338
sS'30_3_0__Da4a_Fa12a_12'
p1406
F0.020890783333333333
sS'100_3_0_3_Da4a_Fa12a_8'
p1407
F0.31621349999999998
sS'100_8_0_3_Da2a__2'
p1408
F3.5470099999999998
sS'100_8_0_3_Da2a__1'
p1409
F5.9435599999999988
sS'100_8_0_3_Da2a__4'
p1410
F2.2714983333333332
sS'100_3_0__Da4a_Fa12a_12'
p1411
F0.56908416666666672
sS'30_8_0_3_Da2a_Fa12a_12'
p1412
F0.073602033333333317
sS'30_8_0___Fa12a_4'
p1413
F0.11006300000000001
sS'100_3_0_3_Da8a_Fa24a_12'
p1414
F0.31281066666666663
sS'30_8_0__Da8a__4'
p1415
F0.10994666666666668
sS'100_3_0_3_Da12a_Fa36a_4'
p1416
F0.34791366666666668
sS'80_3_0____8'
p1417
F1.8694300000000001
sS'100_1_0__Da12a__2'
p1418
F0.80296433333333328
sS'30_8_0__Da8a__1'
p1419
F0.170986
sS'30_8_0__Da8a__2'
p1420
F0.18882866666666667
sS'100_1_0__Da12a__1'
p1421
F0.14982616666666668
sS'80_3_0____2'
p1422
F3.6892233333333331
sS'spe10_3_0_3__Fa18a_12'
p1423
F1.2177099999999998
sS'80_3_0____1'
p1424
F0.32900733333333332
sS'30_8_0__Da8a__8'
p1425
F0.073079616666666666
sS'30_3_0_3___12'
p1426
F0.012009199999999999
sS'80_3_0____4'
p1427
F2.4727416666666664
sS'80_3_0__Da2a_Fa12a_8'
p1428
F0.31468716666666668
sS'100_1_0_3__Fa36a_4'
p1429
F0.15051450000000002
sS'30_1_0_3_Da4a_Fa18a_12'
p1430
F0.0030194533333333332
sS'100_1_0_3__Fa36a_2'
p1431
F0.24346950000000001
sS'100_3_0__Da4a_Fa12a_8'
p1432
F0.68174499999999993
sS'100_1_0__Da4a_Fa24a_12'
p1433
F0.168741
sS'100_3_0_3___2'
p1434
F0.5908713333333333
sS'80_3_0__Da2a_Fa12a_1'
p1435
F0.32882866666666666
sS'80_3_0__Da2a_Fa12a_2'
p1436
F0.85362516666666666
sS'100_3_0_3___1'
p1437
F0.64449449999999997
sS'80_3_0__Da2a_Fa12a_4'
p1438
F0.47671449999999999
sS'100_1_0_3__Fa36a_8'
p1439
F0.10710900000000001
sS'100_3_0__Da4a_Fa12a_1'
p1440
F0.64636516666666666
sS'80_8_0_3__Fa18a_8'
p1441
F0.96594150000000001
sS'100_1_0_3_Da2a_Fa24a_8'
p1442
F0.098639466666666675
sS'80_8_0_3__Fa18a_4'
p1443
F1.1490849999999997
sS'80_3_0__Da2a_Fa36a_12'
p1444
F0.2346895
sS'30_3_0__Da12a__1'
p1445
F0.019302383333333329
sS'80_8_0_3__Fa18a_1'
p1446
F3.0273383333333332
sS'100_1_0_3_Da2a_Fa24a_2'
p1447
F0.21558216666666666
sS'100_1_0_3_Da2a_Fa24a_1'
p1448
F0.14898066666666668
sS'80_8_0_3__Fa18a_2'
p1449
F1.7951033333333333
sS'80_8_0__Da2a_Fa6a_4'
p1450
F2.3957333333333337
sS'80_8_0__Da2a_Fa6a_1'
p1451
F3.0302366666666667
sS'80_8_0__Da2a_Fa6a_2'
p1452
F3.6669800000000001
sS'80_8_0__Da2a_Fa6a_8'
p1453
F1.9857500000000001
sS'80_8_0__Da8a_Fa12a_4'
p1454
F1.8677900000000001
sS'80_8_0__Da8a_Fa12a_1'
p1455
F3.0316433333333332
sS'100_8_0__Da2a_Fa12a_12'
p1456
F2.8221583333333329
sS'80_8_0__Da8a_Fa12a_2'
p1457
F3.2552283333333336
sS'80_8_0__Da8a_Fa12a_8'
p1458
F1.3791599999999999
sS'100_3_0_3__Fa6a_12'
p1459
F0.46474799999999999
sS'30_3_0__Da2a_Fa12a_12'
p1460
F0.020307866666666664
sS'30_1_0__Da12a_Fa18a_2'
p1461
F0.013396433333333332
sS'30_1_0__Da12a_Fa18a_1'
p1462
F0.0037613866666666661
sS'100_3_0_3_Da8a_Fa12a_8'
p1463
F0.32013516666666669
sS'30_1_0__Da12a_Fa18a_4'
p1464
F0.0082681000000000022
sS'80_8_0__Da8a_Fa36a_12'
p1465
F1.0799766666666668
sS'100_3_0_3_Da8a_Fa12a_4'
p1466
F0.35259766666666664
sS'30_1_0__Da12a_Fa18a_8'
p1467
F0.0059579666666666658
sS'100_3_0_3_Da8a_Fa12a_2'
p1468
F0.48511466666666664
sS'100_3_0_3_Da8a_Fa12a_1'
p1469
F0.64512700000000001
sS'30_8_0_3_Da4a_Fa12a_8'
p1470
F0.066322383333333332
sS'100_3_0_3_Da12a_Fa18a_8'
p1471
F0.31079699999999999
sS'100_1_0___Fa24a_2'
p1472
F0.51671233333333333
sS'100_1_0___Fa24a_4'
p1473
F0.28624916666666667
sS'100_3_0__Da8a_Fa12a_12'
p1474
F0.47108366666666668
sS'100_3_0_3_Da12a_Fa18a_2'
p1475
F0.46784416666666662
sS'30_8_0_3_Da4a_Fa12a_1'
p1476
F0.17101983333333334
sS'30_8_0_3_Da4a_Fa12a_2'
p1477
F0.10281899999999999
sS'100_3_0_3_Da12a_Fa18a_1'
p1478
F0.64758816666666663
sS'30_8_0_3_Da4a_Fa12a_4'
p1479
F0.069931249999999986
sS'100_3_0_3_Da12a_Fa18a_4'
p1480
F0.34747699999999998
sS'30_1_0_3__Fa24a_12'
p1481
F0.0035424066666666664
sS'100_3_0__Da2a_Fa6a_8'
p1482
F0.85297433333333339
sS'30_1_0__Da8a__12'
p1483
F0.0068900383333333343
sS'30_3_0__Da4a_Fa24a_8'
p1484
F0.02143815
sS'spe10_3_0_3_Da12a_Fa24a_4'
p1485
F1.2677816666666666
sS'spe10_3_0__Da2a_Fa12a_2'
p1486
F5.6900666666666666
sS'100_1_0__Da8a_Fa12a_2'
p1487
F0.43326833333333337
sS'spe10_3_0__Da2a_Fa12a_1'
p1488
F2.0867966666666664
sS'30_3_0__Da4a_Fa24a_2'
p1489
F0.056672516666666672
sS'30_3_0__Da4a_Fa24a_1'
p1490
F0.019381550000000001
sS'100_3_0__Da2a_Fa24a_4'
p1491
F0.95046666666666668
sS'spe10_3_0__Da2a_Fa12a_8'
p1492
F2.0856383333333333
sS'spe10_3_0_3_Da12a_Fa24a_2'
p1493
F1.8371216666666668
sS'30_1_0_3__Fa12a_8'
p1494
F0.0036763466666666668
sS'30_1_0_3__Fa12a_4'
p1495
F0.004565133333333333
sS'30_1_0_3__Fa12a_2'
p1496
F0.0071854199999999988
sS'30_1_0_3__Fa12a_1'
p1497
F0.00377896
sS'100_1_0__Da8a_Fa12a_8'
p1498
F0.15892383333333335
sS'80_1_0_3_Da2a_Fa6a_12'
p1499
F0.076835516666666659
sS'80_8_0__Da8a_Fa18a_12'
p1500
F1.1874366666666667
sS'80_8_0_3_Da2a_Fa12a_2'
p1501
F1.8103733333333334
sS'spe10_3_0__Da4a__12'
p1502
F2.8469733333333331
sS'80_1_0_3_Da2a_Fa24a_12'
p1503
F0.048709333333333348
sS'30_1_0__Da2a_Fa24a_12'
p1504
F0.0063787750000000006
sS'spe10_3_0_3_Da8a_Fa36a_12'
p1505
F1.0555966666666665
sS'100_8_0__Da8a_Fa24a_12'
p1506
F2.2505100000000002
sS'80_8_0_3_Da8a_Fa36a_12'
p1507
F1.047795
sS'100_1_0__Da8a_Fa24a_1'
p1508
F0.147869
sS'80_3_0____12'
p1509
F1.6716216666666668
sS'100_1_0__Da8a_Fa24a_2'
p1510
F0.4350856666666667
sS'30_8_0_3_Da2a_Fa18a_12'
p1511
F0.070568166666666668
sS'80_1_0__Da12a_Fa6a_12'
p1512
F0.14685699999999999
sS'100_1_0__Da8a_Fa24a_4'
p1513
F0.24142416666666666
sS'80_1_0__Da12a_Fa18a_12'
p1514
F0.094509249999999989
sS'100_1_0_3__Fa12a_8'
p1515
F0.10678333333333333
sS'100_1_0_3__Fa12a_4'
p1516
F0.14424783333333333
sS'100_8_0___Fa12a_4'
p1517
F4.1993200000000002
sS'100_8_0_3_Da8a_Fa12a_2'
p1518
F3.3304283333333333
sS'100_1_0_3__Fa12a_1'
p1519
F0.14805666666666667
sS'100_1_0_3__Fa12a_2'
p1520
F0.23408899999999999
sS'80_8_0_3__Fa36a_12'
p1521
F0.92327499999999996
sS'80_1_0_3_Da2a__2'
p1522
F0.12125433333333331
sS'80_1_0_3_Da2a__1'
p1523
F0.075348666666666661
sS'100_3_0_3_Da12a__1'
p1524
F0.64590633333333336
sS'80_1_0_3_Da2a__4'
p1525
F0.074635883333333333
sS'80_1_0_3_Da2a__8'
p1526
F0.053747366666666664
sS'100_3_0_3_Da12a__8'
p1527
F0.30989499999999998
sS'30_1_0_3___12'
p1528
F0.003554796666666667
sS'100_8_0_3_Da8a_Fa12a_1'
p1529
F5.9747466666666655
sS'30_8_0_3_Da2a__2'
p1530
F0.10609999999999999
sS'30_8_0_3_Da2a__1'
p1531
F0.17130833333333331
sS'30_8_0_3_Da2a__4'
p1532
F0.071672799999999995
sS'30_8_0_3_Da2a__8'
p1533
F0.065396349999999992
sS'100_1_0_3_Da4a_Fa36a_12'
p1534
F0.087741599999999989
sS'100_1_0__Da2a_Fa18a_12'
p1535
F0.16466766666666666
sS'spe10_3_0_3_Da4a_Fa12a_12'
p1536
F1.325925
sS'80_3_0_3_Da4a_Fa36a_4'
p1537
F0.18319883333333334
sS'30_1_0__Da12a_Fa36a_2'
p1538
F0.015199716666666667
sS'30_1_0__Da12a_Fa36a_1'
p1539
F0.0037659383333333331
sS'80_3_0_3_Da4a_Fa36a_1'
p1540
F0.32855533333333331
sS'80_3_0_3_Da4a_Fa36a_2'
p1541
F0.25464033333333336
sS'30_1_0__Da12a_Fa36a_4'
p1542
F0.0092825433333333322
sS'100_3_0___Fa36a_1'
p1543
F0.64508283333333338
sS'100_3_0___Fa36a_2'
p1544
F1.7383049999999998
sS'30_1_0__Da12a_Fa36a_8'
p1545
F0.0065057116666666663
sS'80_1_0___Fa12a_12'
p1546
F0.10038633333333334
sS'100_1_0_3_Da8a_Fa18a_12'
p1547
F0.092896933333333334
sS'100_3_0_3__Fa24a_12'
p1548
F0.30793283333333327
sS'30_8_0__Da8a_Fa36a_1'
p1549
F0.17218633333333333
sS'30_8_0__Da2a_Fa18a_12'
p1550
F0.075766799999999995
sS'80_3_0__Da12a_Fa6a_12'
p1551
F0.44386983333333335
sS'100_8_0__Da4a__12'
p1552
F2.7169066666666666
sS'80_8_0__Da4a_Fa12a_2'
p1553
F3.6362266666666669
sS'80_8_0__Da4a_Fa12a_4'
p1554
F2.14141
sS'80_8_0__Da4a_Fa12a_8'
p1555
F1.6253983333333333
sS'100_1_0__Da12a_Fa36a_12'
p1556
F0.159556
sS'100_3_0__Da12a_Fa24a_8'
p1557
F0.60005016666666666
sS'100_3_0_3_Da8a_Fa24a_8'
p1558
F0.3111618333333333
sS'100_3_0_3_Da8a_Fa24a_4'
p1559
F0.3548891666666667
sS'100_3_0_3_Da8a_Fa24a_2'
p1560
F0.49128649999999996
sS'100_3_0_3_Da8a_Fa24a_1'
p1561
F0.64757150000000008
sS'30_3_0__Da4a_Fa6a_12'
p1562
F0.02897255
sS'100_3_0_3__Fa6a_8'
p1563
F0.40183383333333333
sS'30_3_0_3_Da8a_Fa18a_12'
p1564
F0.015222233333333333
sS'100_3_0_3__Fa6a_2'
p1565
F0.56486183333333329
sS'100_3_0_3__Fa6a_1'
p1566
F0.6474388333333333
sS'30_1_0__Da2a_Fa12a_12'
p1567
F0.0067769116666666664
sS'100_3_0_3__Fa6a_4'
p1568
F0.40954499999999999
sS'spe10_3_0_3_Da8a_Fa24a_8'
p1569
F1.0824816666666666
sS'30_1_0__Da4a__8'
p1570
F0.014303233333333332
sS'spe10_3_0_3_Da8a_Fa24a_1'
p1571
F2.0848933333333335
sS'30_1_0__Da4a__2'
p1572
F0.027567449999999997
sS'30_1_0__Da4a__1'
p1573
F0.0037164216666666669
sS'spe10_3_0_3_Da8a_Fa24a_2'
p1574
F1.8922266666666667
sS'spe10_3_0_3_Da8a_Fa24a_4'
p1575
F1.2871633333333332
sS'30_1_0__Da4a__4'
p1576
F0.018993066666666666
sS'80_1_0_3_Da4a_Fa36a_2'
p1577
F0.091986533333333328
sS'100_8_0__Da12a_Fa12a_12'
p1578
F2.7191716666666665
sS'80_3_0___Fa12a_12'
p1579
F0.28076883333333336
sS'80_8_0__Da2a_Fa6a_12'
p1580
F2.2311516666666669
sS'30_1_0_3_Da2a_Fa12a_8'
p1581
F0.0034792883333333332
sS'30_1_0_3_Da2a_Fa12a_4'
p1582
F0.0041500799999999996
sS'30_1_0_3_Da2a_Fa12a_1'
p1583
F0.0037872700000000001
sS'30_8_0_3_Da12a_Fa36a_4'
p1584
F0.077981683333333329
sS'30_1_0_3_Da2a_Fa12a_2'
p1585
F0.0065038516666666669
sS'30_1_0__Da2a_Fa24a_4'
p1586
F0.0091201033333333324
sS'30_8_0__Da4a_Fa36a_12'
p1587
F0.069764000000000007
sS'100_3_0__Da12a__1'
p1588
F0.64845483333333342
sS'30_8_0__Da2a_Fa6a_12'
p1589
F0.1181855
sS'100_3_0__Da12a__2'
p1590
F2.1262183333333331
sS'100_1_0_3_Da4a_Fa24a_12'
p1591
F0.087776699999999985
sS'100_8_0__Da12a_Fa24a_8'
p1592
F2.8353533333333334
sS'100_3_0__Da12a__4'
p1593
F1.2134666666666665
sS'100_8_0__Da12a_Fa24a_2'
p1594
F7.3161966666666673
sS'100_1_0_3_Da12a_Fa18a_12'
p1595
F0.091012399999999993
sS'100_3_0____12'
p1596
F3.2668149999999998
sS'100_8_0_3_Da12a__4'
p1597
F2.2137833333333332
sS'30_1_0__Da2a_Fa36a_8'
p1598
F0.0078449450000000007
sS'100_8_0___Fa24a_8'
p1599
F2.6421483333333335
sS'30_1_0__Da2a_Fa36a_1'
p1600
F0.0036960499999999998
sS'30_1_0__Da2a_Fa36a_2'
p1601
F0.016085466666666669
sS'30_1_0__Da2a_Fa36a_4'
p1602
F0.010714016666666668
sS'100_8_0___Fa24a_2'
p1603
F7.3486216666666664
sS'100_8_0__Da8a__12'
p1604
F2.2370333333333332
sS'80_1_0_3_Da12a_Fa12a_2'
p1605
F0.078414200000000003
sS'80_8_0_3_Da12a_Fa24a_4'
p1606
F1.1474866666666665
sS'80_8_0_3_Da12a_Fa24a_2'
p1607
F1.7072483333333333
sS'100_8_0__Da12a_Fa12a_8'
p1608
F3.4657866666666668
sS'80_8_0_3_Da12a_Fa24a_1'
p1609
F3.0342116666666663
sS'100_8_0__Da12a_Fa12a_4'
p1610
F4.3540783333333328
sS'100_8_0__Da12a_Fa12a_1'
p1611
F5.9510266666666665
sS'80_8_0_3_Da12a_Fa24a_8'
p1612
F1.0023638333333333
sS'100_8_0__Da12a_Fa12a_2'
p1613
F7.4530583333333338
sS'80_8_0__Da4a_Fa18a_12'
p1614
F1.3735700000000002
sS'100_3_0_3_Da8a_Fa18a_12'
p1615
F0.32078099999999998
sS'80_3_0_3_Da12a__12'
p1616
F0.16478866666666667
sS'80_1_0_3_Da12a_Fa12a_4'
p1617
F0.054820616666666662
sS'80_3_0_3_Da2a_Fa18a_12'
p1618
F0.1648995
sS'30_8_0_3_Da12a__12'
p1619
F0.093470233333333333
sS'30_8_0_3__Fa24a_8'
p1620
F0.059265249999999998
sS'30_8_0_3__Fa24a_1'
p1621
F0.17109233333333332
sS'30_8_0_3__Fa24a_2'
p1622
F0.1080175
sS'30_8_0_3__Fa24a_4'
p1623
F0.070500450000000006
sS'spe10_3_0__Da12a_Fa12a_1'
p1624
F2.0866116666666668
sS'30_3_0_3_Da4a_Fa12a_12'
p1625
F0.012887683333333335
sS'30_1_0_3_Da12a_Fa36a_1'
p1626
F0.0038135600000000001
sS'30_1_0_3_Da12a_Fa36a_2'
p1627
F0.0041326933333333338
sS'30_1_0_3_Da12a_Fa36a_4'
p1628
F0.003079835
sS'30_3_0_3_Da8a_Fa18a_8'
p1629
F0.013882033333333333
sS'30_1_0_3_Da12a_Fa36a_8'
p1630
F0.0031582466666666667
sS'80_3_0_3_Da4a_Fa12a_12'
p1631
F0.17633200000000002
sS'30_3_0_3_Da8a_Fa18a_4'
p1632
F0.013335500000000002
sS'80_8_0_3_Da2a_Fa12a_1'
p1633
F3.0471649999999997
sS'30_3_0_3_Da8a_Fa18a_2'
p1634
F0.017016683333333334
sS'30_3_0_3_Da8a_Fa18a_1'
p1635
F0.019287449999999998
sS'30_8_0_3_Da4a_Fa24a_12'
p1636
F0.070330049999999991
sS'100_1_0_3_Da8a_Fa36a_12'
p1637
F0.09017908333333334
sS'100_3_0_3_Da12a__2'
p1638
F0.47476133333333337
sS'30_8_0__Da4a_Fa18a_12'
p1639
F0.078552466666666668
sS'80_8_0__Da12a_Fa18a_4'
p1640
F2.0844533333333333
sS'spe10_3_0__Da12a_Fa36a_12'
p1641
F1.7079616666666668
sS'80_8_0__Da12a_Fa18a_8'
p1642
F1.4575733333333334
sS'100_3_0__Da2a_Fa18a_12'
p1643
F0.50791350000000002
sS'80_3_0_3_Da8a_Fa12a_2'
p1644
F0.2508353333333333
sS'30_1_0__Da2a__12'
p1645
F0.023657433333333335
sS'80_3_0_3_Da8a_Fa12a_4'
p1646
F0.1841885
sS'80_8_0_3_Da12a_Fa6a_12'
p1647
F1.5162566666666664
sS'80_3_0_3_Da8a_Fa12a_8'
p1648
F0.17138483333333332
sS'100_3_0_3_Da12a__4'
p1649
F0.34830650000000002
sS'80_8_0_3__Fa18a_12'
p1650
F0.96656416666666656
sS'80_3_0_3_Da12a_Fa36a_4'
p1651
F0.17785266666666669
sS'100_1_0_3_Da12a_Fa18a_4'
p1652
F0.10610150000000002
sS'spe10_3_0__Da2a__12'
p1653
F4.7587699999999993
sS'100_8_0__Da8a_Fa6a_8'
p1654
F3.5711983333333337
sS'100_1_0_3_Da12a_Fa18a_1'
p1655
F0.14910199999999998
sS'80_3_0_3_Da8a_Fa12a_12'
p1656
F0.18469616666666666
sS'80_8_0_3_Da12a_Fa12a_12'
p1657
F1.1440049999999999
sS'100_1_0_3_Da12a_Fa18a_8'
p1658
F0.089384350000000001
sS'100_8_0__Da4a__2'
p1659
F8.7870316666666657
sS'30_3_0_3_Da12a_Fa18a_12'
p1660
F0.015027716666666665
sS'100_3_0__Da12a_Fa18a_4'
p1661
F0.97039316666666675
sS'30_3_0_3_Da8a_Fa6a_8'
p1662
F0.014605333333333336
sS'100_3_0__Da12a_Fa18a_2'
p1663
F1.7158783333333332
sS'100_1_0_3_Da2a_Fa6a_12'
p1664
F0.14502916666666668
sS'100_3_0__Da12a_Fa18a_1'
p1665
F0.64462399999999997
sS'30_3_0_3_Da8a_Fa6a_2'
p1666
F0.016766949999999999
sS'30_3_0_3_Da8a_Fa6a_1'
p1667
F0.019324316666666664
sS'100_8_0_3_Da4a_Fa6a_8'
p1668
F2.3907816666666668
sS'100_3_0__Da12a_Fa18a_8'
p1669
F0.61294566666666672
sS'30_3_0_3_Da8a_Fa6a_4'
p1670
F0.013433149999999998
sS'80_8_0__Da12a_Fa24a_12'
p1671
F1.2839166666666666
sS'spe10_3_0_3_Da2a_Fa24a_8'
p1672
F1.1025883333333333
sS'30_1_0_3_Da2a_Fa24a_8'
p1673
F0.0034361733333333334
sS'30_1_0_3_Da2a_Fa24a_4'
p1674
F0.004178581666666667
sS'spe10_3_0_3_Da2a_Fa24a_2'
p1675
F2.1010633333333333
sS'spe10_3_0_3_Da2a_Fa24a_1'
p1676
F2.0831566666666661
sS'30_1_0_3_Da2a_Fa24a_1'
p1677
F0.0037147066666666667
sS'30_1_0_3_Da2a_Fa24a_2'
p1678
F0.0065272833333333341
sS'spe10_3_0_3_Da2a_Fa24a_4'
p1679
F1.3763233333333333
sS'30_3_0_3___8'
p1680
F0.012273416666666667
sS'30_3_0__Da2a_Fa12a_8'
p1681
F0.021387800000000002
sS'spe10_3_0__Da4a_Fa18a_12'
p1682
F1.8817366666666668
sS'100_1_0_3_Da12a_Fa36a_12'
p1683
F0.089521866666666658
sS'30_3_0__Da2a_Fa12a_4'
p1684
F0.030651150000000002
sS'30_3_0_3___1'
p1685
F0.019356983333333334
sS'30_1_0_3__Fa6a_12'
p1686
F0.0050029749999999998
sS'30_3_0__Da2a_Fa12a_1'
p1687
F0.019314783333333332
sS'30_3_0__Da2a_Fa12a_2'
p1688
F0.051490766666666667
sS'30_1_0___Fa18a_2'
p1689
F0.012811783333333333
sS'30_1_0___Fa18a_1'
p1690
F0.003756071666666666
sS'30_1_0___Fa18a_4'
p1691
F0.0082985100000000003
sS'30_1_0_3_Da12a_Fa12a_12'
p1692
F0.0033434833333333331
sS'30_1_0___Fa18a_8'
p1693
F0.0061603650000000001
sS'30_8_0_3__Fa12a_12'
p1694
F0.069767350000000006
sS'80_8_0_3_Da4a_Fa12a_12'
p1695
F1.0836766666666666
sS'30_3_0__Da8a__8'
p1696
F0.021353116666666668
sS'30_3_0__Da8a__4'
p1697
F0.032848383333333335
sS'30_3_0__Da8a__1'
p1698
F0.019305433333333333
sS'30_3_0__Da8a__2'
p1699
F0.055750683333333335
sS'80_1_0__Da4a__12'
p1700
F0.24691366666666667
sS'80_8_0_3_Da2a__8'
p1701
F0.97123083333333327
sS'100_3_0_3_Da2a_Fa36a_12'
p1702
F0.30450783333333331
sS'80_8_0_3_Da2a__2'
p1703
F1.8306083333333334
sS'80_8_0_3_Da2a__1'
p1704
F3.0340450000000003
sS'80_8_0_3_Da2a__4'
p1705
F1.1732749999999998
sS'30_8_0_3_Da8a_Fa6a_1'
p1706
F0.17170866666666665
sS'30_8_0_3_Da8a_Fa6a_2'
p1707
F0.10461433333333332
sS'30_8_0_3_Da8a_Fa6a_4'
p1708
F0.077879733333333326
sS'100_8_0___Fa36a_12'
p1709
F2.2636266666666667
sS'30_8_0_3_Da8a_Fa6a_8'
p1710
F0.086228916666666655
sS'100_8_0_3_Da8a_Fa36a_2'
p1711
F3.3568099999999998
sS'100_3_0_3_Da8a__8'
p1712
F0.31093816666666668
sS'30_3_0_3__Fa18a_4'
p1713
F0.015154383333333332
sS'30_3_0_3__Fa18a_2'
p1714
F0.022742133333333331
sS'30_3_0_3__Fa18a_1'
p1715
F0.019393999999999998
sS'100_3_0_3_Da8a__2'
p1716
F0.49101616666666664
sS'100_3_0_3_Da8a__1'
p1717
F0.64508566666666667
sS'100_3_0_3_Da8a__4'
p1718
F0.35510299999999995
sS'30_3_0_3__Fa18a_8'
p1719
F0.012333683333333333
sS'100_1_0__Da12a_Fa24a_8'
p1720
F0.18774933333333332
sS'spe10_3_0__Da12a_Fa6a_12'
p1721
F2.9695233333333335
sS'100_1_0__Da12a_Fa24a_2'
p1722
F0.51940883333333332
sS'100_1_0__Da12a_Fa24a_1'
p1723
F0.14870316666666666
sS'100_1_0__Da12a_Fa24a_4'
p1724
F0.29338133333333333
sS'30_1_0__Da2a_Fa24a_8'
p1725
F0.0066724616666666665
sS'80_8_0__Da2a__12'
p1726
F1.7016383333333334
sS'80_8_0_3_Da2a_Fa24a_8'
p1727
F0.96961933333333328
sS'30_3_0_3__Fa18a_12'
p1728
F0.012676833333333332
sS'30_1_0__Da8a_Fa6a_8'
p1729
F0.0056313199999999996
sS'80_8_0_3_Da2a_Fa24a_4'
p1730
F1.1667449999999999
sS'80_3_0_3_Da12a_Fa12a_12'
p1731
F0.18086516666666666
sS'30_1_0__Da8a_Fa6a_4'
p1732
F0.0059515150000000001
sS'30_1_0__Da8a_Fa6a_2'
p1733
F0.008279463333333334
sS'30_1_0__Da8a_Fa6a_1'
p1734
F0.0038489333333333333
sS'100_3_0___Fa12a_2'
p1735
F1.7341899999999999
sS'30_1_0_3_Da4a_Fa12a_12'
p1736
F0.003132045
sS'100_3_0___Fa12a_1'
p1737
F0.64522016666666671
sS'100_3_0___Fa12a_4'
p1738
F0.96191750000000009
sS'100_8_0____2'
p1739
F15.64805
sS'100_8_0__Da4a_Fa24a_1'
p1740
F5.962533333333333
sS'100_3_0___Fa12a_8'
p1741
F0.62018916666666668
sS'100_8_0__Da4a_Fa24a_4'
p1742
F4.2511799999999997
sS'100_8_0____1'
p1743
F5.9370366666666667
sS'100_1_0_3_Da2a_Fa12a_12'
p1744
F0.1039345
sS'30_1_0__Da12a__4'
p1745
F0.011573366666666668
sS'30_1_0__Da12a__2'
p1746
F0.018612533333333334
sS'30_1_0__Da12a__1'
p1747
F0.0037402000000000004
sS'80_8_0_3_Da8a_Fa18a_4'
p1748
F1.1402400000000001
sS'30_3_0_3_Da2a_Fa24a_12'
p1749
F0.013562350000000001
sS'80_8_0_3_Da8a_Fa18a_1'
p1750
F3.0268750000000004
sS'100_8_0_3_Da4a_Fa6a_1'
p1751
F5.9417566666666666
sS'30_1_0__Da12a__8'
p1752
F0.0079383760000000005
sS'100_1_0__Da8a_Fa12a_4'
p1753
F0.24283683333333336
sS'30_8_0_3_Da12a_Fa24a_2'
p1754
F0.10336566666666669
sS'30_8_0_3_Da12a_Fa24a_1'
p1755
F0.17168233333333335
sS'100_1_0__Da8a_Fa12a_1'
p1756
F0.14863883333333336
sS'30_3_0_3_Da2a_Fa24a_8'
p1757
F0.012686083333333332
sS'30_8_0_3_Da12a_Fa24a_4'
p1758
F0.077765366666666655
sS'80_1_0__Da4a_Fa12a_12'
p1759
F0.10083433333333335
sS'30_3_0_3_Da2a_Fa24a_4'
p1760
F0.014325516666666668
sS'30_8_0_3_Da12a_Fa24a_8'
p1761
F0.083065266666666679
sS'30_3_0_3_Da2a_Fa24a_2'
p1762
F0.021037183333333334
sS'30_3_0_3_Da2a_Fa24a_1'
p1763
F0.019289216666666668
sS'30_8_0__Da4a_Fa12a_1'
p1764
F0.17230999999999999
sS'30_8_0__Da4a_Fa12a_2'
p1765
F0.19377533333333333
sS'30_8_0__Da4a_Fa12a_4'
p1766
F0.11478883333333334
sS'30_8_0__Da4a_Fa12a_8'
p1767
F0.087961200000000003
sS'100_3_0__Da2a_Fa6a_12'
p1768
F0.90054783333333333
sS'100_3_0_3_Da12a_Fa24a_8'
p1769
F0.30948999999999999
sS'80_1_0_3_Da4a_Fa36a_8'
p1770
F0.047846333333333331
sS'30_8_0_3_Da12a_Fa18a_12'
p1771
F0.093388983333333342
sS'80_1_0_3_Da4a_Fa36a_1'
p1772
F0.075991666666666666
sS'80_1_0_3_Da4a_Fa36a_4'
p1773
F0.060890500000000007
sS'80_8_0_3_Da12a_Fa36a_1'
p1774
F3.0313000000000003
sS'80_1_0_3_Da12a_Fa12a_8'
p1775
F0.04825221666666666
sS'30_8_0__Da8a_Fa6a_8'
p1776
F0.096162433333333339
sS'100_8_0_3__Fa36a_8'
p1777
F1.8487433333333334
sS'30_8_0__Da8a_Fa6a_4'
p1778
F0.10522916666666667
sS'100_8_0_3__Fa36a_4'
p1779
F2.2427416666666664
sS'80_1_0_3_Da12a_Fa12a_1'
p1780
F0.075612466666666669
sS'100_8_0_3__Fa36a_1'
p1781
F5.9671916666666673
sS'30_8_0__Da8a_Fa6a_1'
p1782
F0.17041233333333336
sS'30_8_0__Da8a_Fa6a_2'
p1783
F0.15414400000000003
sS'100_8_0_3__Fa36a_2'
p1784
F3.5258366666666667
sS'spe10_3_0__Da12a_Fa12a_2'
p1785
F6.1453983333333326
sS'80_3_0_3_Da4a__4'
p1786
F0.18324266666666666
sS'30_3_0___Fa6a_12'
p1787
F0.028098233333333333
sS'80_3_0_3_Da4a__2'
p1788
F0.25615116666666665
sS'30_3_0_3_Da2a_Fa12a_12'
p1789
F0.014096699999999998
sS'spe10_3_0__Da12a_Fa12a_4'
p1790
F3.5881633333333327
sS'80_3_0_3_Da4a__1'
p1791
F0.32885333333333333
sS'spe10_3_0__Da12a_Fa12a_8'
p1792
F2.6510199999999999
sS'80_3_0_3_Da4a__8'
p1793
F0.15874766666666665
sS'80_8_0_3_Da12a_Fa36a_4'
p1794
F1.1333933333333333
sS'100_3_0__Da12a_Fa6a_12'
p1795
F0.88045650000000009
sS'80_8_0__Da8a_Fa6a_8'
p1796
F1.7949283333333332
sS'30_3_0___Fa36a_8'
p1797
F0.02178303333333333
sS'80_8_0__Da8a_Fa6a_4'
p1798
F2.1133766666666669
sS'80_8_0__Da8a_Fa6a_2'
p1799
F3.3511849999999996
sS'80_8_0__Da8a_Fa6a_1'
p1800
F3.0353283333333336
sS'30_1_0__Da4a_Fa6a_12'
p1801
F0.0086262483333333327
sS'80_8_0__Da4a__2'
p1802
F4.2480900000000004
sS'100_8_0__Da8a_Fa36a_12'
p1803
F2.1690033333333334
sS'100_8_0__Da12a_Fa36a_12'
p1804
F2.4588300000000003
sS'30_8_0__Da12a_Fa18a_12'
p1805
F0.080334299999999997
sS'30_3_0___Fa18a_4'
p1806
F0.029827300000000001
sS'100_8_0__Da4a_Fa36a_8'
p1807
F2.7377400000000001
sS'30_3_0___Fa18a_1'
p1808
F0.019290600000000001
sS'30_3_0___Fa18a_2'
p1809
F0.05104446666666667
sS'30_1_0_3_Da2a_Fa24a_12'
p1810
F0.0035515316666666669
sS'30_3_0___Fa18a_8'
p1811
F0.019482783333333333
sS'80_8_0___Fa6a_12'
p1812
F2.1912883333333331
sS'80_8_0__Da8a__4'
p1813
F1.9751216666666664
sS'100_1_0_3_Da2a_Fa24a_12'
p1814
F0.091624366666666665
sS'80_8_0__Da4a__4'
p1815
F2.4249533333333333
sS'30_3_0_3_Da4a_Fa12a_1'
p1816
F0.019410866666666669
sS'100_8_0__Da4a_Fa36a_2'
p1817
F7.5587383333333333
sS'100_8_0__Da4a_Fa36a_1'
p1818
F5.9985283333333328
sS'30_3_0_3_Da4a_Fa12a_2'
p1819
F0.016943149999999997
sS'100_3_0_3_Da4a_Fa12a_12'
p1820
F0.33366033333333339
sS'30_3_0_3_Da4a_Fa12a_4'
p1821
F0.012473199999999999
sS'100_8_0__Da4a_Fa36a_4'
p1822
F4.2256
sS'30_3_0_3_Da4a_Fa12a_8'
p1823
F0.011861633333333335
sS'100_1_0_3_Da12a_Fa6a_1'
p1824
F0.14904083333333332
sS'80_1_0__Da4a__8'
p1825
F0.28200550000000002
sS'spe10_3_0_3_Da12a_Fa18a_12'
p1826
F1.1766233333333334
sS'80_1_0__Da4a__1'
p1827
F0.075368316666666671
sS'80_1_0__Da4a__2'
p1828
F0.59512266666666658
sS'80_1_0__Da4a__4'
p1829
F0.39224833333333337
sS'80_1_0_3_Da4a_Fa18a_12'
p1830
F0.047586099999999999
sS'100_8_0__Da2a_Fa6a_12'
p1831
F4.5139716666666665
sS'80_3_0_3_Da4a_Fa18a_8'
p1832
F0.15922416666666669
sS'80_3_0__Da12a_Fa18a_8'
p1833
F0.31310250000000001
sS'100_1_0_3_Da4a_Fa18a_1'
p1834
F0.14885633333333334
sS'80_1_0___Fa24a_8'
p1835
F0.09236066666666666
sS'100_1_0_3_Da4a_Fa18a_4'
p1836
F0.11499149999999998
sS'80_3_0__Da12a_Fa18a_2'
p1837
F0.87967783333333338
sS'80_1_0___Fa24a_4'
p1838
F0.14893616666666668
sS'80_3_0_3_Da4a_Fa18a_2'
p1839
F0.25560566666666668
sS'80_3_0__Da12a_Fa18a_1'
p1840
F0.32796883333333332
sS'80_1_0___Fa24a_1'
p1841
F0.075123700000000002
sS'80_3_0__Da12a_Fa18a_4'
p1842
F0.49715350000000003
sS'80_1_0___Fa24a_2'
p1843
F0.2669955
sS'80_1_0__Da2a_Fa12a_12'
p1844
F0.098641550000000008
sS'100_1_0___Fa12a_12'
p1845
F0.18976616666666668
sS'30_3_0__Da4a_Fa12a_1'
p1846
F0.019512116666666666
sS'30_3_0_3_Da8a_Fa24a_12'
p1847
F0.015271933333333335
sS'100_1_0__Da4a__4'
p1848
F0.79090150000000004
sS'100_1_0__Da4a_Fa12a_1'
p1849
F0.14940600000000001
sS'100_1_0__Da4a_Fa12a_2'
p1850
F0.54243483333333342
sS'100_1_0__Da4a_Fa12a_4'
p1851
F0.31130300000000005
sS'100_1_0__Da4a__1'
p1852
F0.148649
sS'100_1_0__Da4a__2'
p1853
F1.1914666666666667
sS'80_1_0_3_Da8a_Fa6a_12'
p1854
F0.065798450000000008
sS'100_1_0__Da4a__8'
p1855
F0.56307049999999992
sS'100_3_0_3__Fa18a_4'
p1856
F0.38906200000000002
sS'100_3_0_3__Fa18a_1'
p1857
F0.64705550000000001
sS'100_3_0_3__Fa18a_2'
p1858
F0.5748538333333334
sS'100_3_0_3__Fa18a_8'
p1859
F0.32179866666666668
sS'30_1_0_3_Da8a_Fa12a_12'
p1860
F0.0036524683333333335
sS'80_8_0_3_Da8a__12'
p1861
F1.0494466666666666
sS'100_3_0__Da12a_Fa36a_2'
p1862
F1.7471099999999999
sS'80_1_0_3__Fa12a_12'
p1863
F0.057148016666666662
sS'30_8_0_3_Da4a_Fa18a_8'
p1864
F0.064667816666666669
sS'100_3_0_3_Da12a_Fa24a_12'
p1865
F0.31284716666666662
sS'80_3_0__Da8a_Fa36a_12'
p1866
F0.20880850000000004
sS'30_8_0_3_Da4a_Fa18a_4'
p1867
F0.069983749999999997
sS'30_8_0_3_Da4a_Fa18a_2'
p1868
F0.10517016666666666
sS'100_3_0_3_Da12a_Fa12a_1'
p1869
F0.64626566666666674
sS'100_3_0_3_Da12a_Fa12a_2'
p1870
F0.46273983333333329
sS'30_8_0_3_Da4a_Fa18a_1'
p1871
F0.17090616666666669
sS'100_3_0___Fa6a_12'
p1872
F0.8993013333333334
sS'30_3_0__Da12a_Fa18a_12'
p1873
F0.019013916666666669
sS'30_8_0_3_Da4a_Fa6a_12'
p1874
F0.090146416666666659
sS'spe10_3_0_3__Fa24a_1'
p1875
F2.0853350000000002
sS'100_1_0_3_Da4a_Fa18a_2'
p1876
F0.17359933333333333
sS'30_3_0__Da8a_Fa24a_4'
p1877
F0.026636616666666668
sS'spe10_3_0_3__Fa24a_2'
p1878
F2.0912466666666667
sS'30_3_0__Da8a_Fa24a_2'
p1879
F0.046143133333333336
sS'spe10_3_0_3__Fa24a_4'
p1880
F1.3706000000000003
sS'80_1_0___Fa6a_2'
p1881
F0.27074949999999998
sS'30_3_0__Da8a_Fa24a_1'
p1882
F0.019318983333333335
sS'80_1_0____4'
p1883
F1.6324266666666665
sS'spe10_3_0_3__Fa24a_8'
p1884
F1.0895183333333331
sS'80_1_0___Fa6a_8'
p1885
F0.14307683333333335
sS'80_1_0____1'
p1886
F0.075271950000000004
sS'30_3_0__Da8a_Fa24a_8'
p1887
F0.016818283333333333
sS'80_3_0_3__Fa6a_8'
p1888
F0.21263933333333332
sS'80_1_0__Da12a__4'
p1889
F0.24388216666666671
sS'80_1_0__Da12a__2'
p1890
F0.40893249999999998
sS'80_1_0__Da12a__1'
p1891
F0.075361533333333328
sS'80_1_0__Da12a__8'
p1892
F0.15925149999999999
sS'100_1_0__Da12a_Fa12a_2'
p1893
F0.51052666666666668
sS'30_1_0___Fa24a_1'
p1894
F0.0037606633333333336
sS'30_1_0___Fa24a_2'
p1895
F0.013683849999999999
sS'100_1_0__Da12a_Fa12a_1'
p1896
F0.1490653333333333
sS'30_1_0___Fa24a_4'
p1897
F0.0090758533333333332
sS'80_1_0__Da8a_Fa18a_12'
p1898
F0.06787195
sS'100_8_0_3_Da2a_Fa12a_12'
p1899
F2.0923050000000001
sS'30_1_0___Fa24a_8'
p1900
F0.0066199166666666672
sS'100_1_0__Da12a_Fa12a_8'
p1901
F0.21652733333333332
sS'30_3_0_3_Da8a_Fa6a_12'
p1902
F0.015928883333333334
sS'80_3_0_3_Da12a_Fa18a_4'
p1903
F0.17782233333333333
sS'30_3_0__Da2a_Fa36a_4'
p1904
F0.03449523333333334
sS'80_3_0_3_Da12a_Fa18a_2'
p1905
F0.24070250000000004
sS'30_3_0__Da2a_Fa36a_2'
p1906
F0.05785163333333334
sS'30_3_0__Da2a_Fa36a_1'
p1907
F0.019315716666666666
sS'80_3_0_3_Da4a_Fa18a_1'
p1908
F0.32958283333333332
sS'80_3_0_3__Fa36a_12'
p1909
F0.16183633333333333
sS'30_3_0__Da8a_Fa6a_12'
p1910
F0.024028950000000004
sS'30_3_0_3_Da8a__12'
p1911
F0.015250100000000001
sS'80_3_0_3_Da12a_Fa18a_8'
p1912
F0.161111
sS'30_3_0__Da2a_Fa36a_8'
p1913
F0.022479583333333334
sS'spe10_3_0__Da4a_Fa18a_2'
p1914
F5.9342250000000005
sS'80_1_0___Fa36a_4'
p1915
F0.15325816666666667
sS'spe10_3_0__Da4a_Fa18a_1'
p1916
F2.0828316666666669
sS'80_1_0___Fa36a_2'
p1917
F0.2724645
sS'spe10_3_0__Da4a_Fa18a_4'
p1918
F3.3622633333333334
sS'80_1_0___Fa36a_1'
p1919
F0.075052266666666659
sS'80_3_0_3_Da4a_Fa18a_4'
p1920
F0.18304966666666667
sS'spe10_3_0__Da4a_Fa18a_8'
p1921
F2.0930833333333334
sS'30_8_0__Da8a_Fa12a_12'
p1922
F0.073161583333333335
sS'80_1_0___Fa36a_8'
p1923
F0.09474701666666667
sS'30_1_0_3_Da12a_Fa6a_4'
p1924
F0.0031362616666666663
sS'30_1_0_3_Da12a_Fa6a_1'
p1925
F0.0037697749999999999
sS'30_1_0_3_Da12a_Fa6a_2'
p1926
F0.0041250083333333335
sS'30_1_0_3_Da12a_Fa6a_8'
p1927
F0.0033277350000000001
sS'spe10_3_0_3_Da4a_Fa36a_12'
p1928
F1.0722733333333332
sS'30_1_0__Da8a__8'
p1929
F0.0077935233333333341
sS'80_3_0_3_Da12a_Fa36a_8'
p1930
F0.16075999999999999
sS'30_1_0__Da8a__4'
p1931
F0.010670199999999999
sS'30_1_0__Da8a__2'
p1932
F0.015671333333333332
sS'30_1_0__Da8a__1'
p1933
F0.0037428766666666668
sS'80_3_0_3_Da8a_Fa24a_12'
p1934
F0.17020250000000001
sS'100_1_0__Da4a_Fa36a_1'
p1935
F0.14943583333333335
sS'80_8_0___Fa6a_8'
p1936
F1.9640833333333332
sS'80_8_0___Fa6a_4'
p1937
F2.3058883333333333
sS'80_8_0___Fa6a_2'
p1938
F3.6454133333333334
sS'80_8_0___Fa6a_1'
p1939
F3.0217266666666664
sS'100_1_0__Da2a_Fa6a_8'
p1940
F0.27304866666666666
sS'100_8_0_3_Da2a_Fa36a_2'
p1941
F3.4961333333333333
sS'30_8_0_3_Da12a_Fa6a_12'
p1942
F0.098457333333333327
sS'80_3_0_3_Da4a_Fa6a_2'
p1943
F0.25117316666666661
sS'100_3_0__Da12a_Fa36a_12'
p1944
F0.48583700000000002
sS'80_3_0_3_Da4a_Fa6a_1'
p1945
F0.32891666666666669
sS'100_8_0_3_Da2a_Fa36a_8'
p1946
F1.8651666666666669
sS'80_3_0_3_Da4a_Fa6a_8'
p1947
F0.19764516666666665
sS'30_3_0_3_Da12a_Fa24a_8'
p1948
F0.013790199999999997
sS'80_1_0_3_Da2a_Fa36a_12'
p1949
F0.049305816666666669
sS'30_3_0_3_Da12a_Fa24a_1'
p1950
F0.019340833333333331
sS'30_3_0_3_Da12a_Fa24a_2'
p1951
F0.015985249999999999
sS'30_3_0_3_Da12a_Fa24a_4'
p1952
F0.012842116666666667
sS'80_8_0__Da12a_Fa18a_2'
p1953
F3.5905316666666667
sS'80_3_0_3_Da8a_Fa36a_1'
p1954
F0.32829883333333337
sS'80_3_0_3_Da8a_Fa36a_2'
p1955
F0.25414683333333332
sS'30_1_0__Da4a_Fa18a_4'
p1956
F0.0089065283333333353
sS'80_3_0_3_Da8a_Fa36a_4'
p1957
F0.18520616666666667
sS'30_1_0__Da4a_Fa18a_2'
p1958
F0.013966733333333333
sS'30_1_0__Da4a_Fa18a_1'
p1959
F0.003793511666666667
sS'80_3_0_3_Da8a_Fa36a_8'
p1960
F0.16585566666666671
sS'80_8_0_3_Da8a_Fa24a_12'
p1961
F1.0424166666666668
sS'30_1_0__Da4a_Fa18a_8'
p1962
F0.0065959100000000008
sS'100_1_0___Fa12a_4'
p1963
F0.28383016666666666
sS'spe10_3_0_3_Da12a_Fa18a_8'
p1964
F1.1042983333333334
sS'100_1_0___Fa12a_1'
p1965
F0.14821933333333334
sS'100_1_0___Fa12a_2'
p1966
F0.51856833333333341
sS'100_1_0_3_Da8a__1'
p1967
F0.14793416666666667
sS'spe10_3_0_3_Da12a_Fa18a_4'
p1968
F1.2659283333333333
sS'100_1_0___Fa12a_8'
p1969
F0.19269583333333332
sS'spe10_3_0_3_Da12a_Fa18a_1'
p1970
F2.1013916666666668
sS'spe10_3_0_3_Da12a_Fa18a_2'
p1971
F1.8251183333333334
sS'spe10_3_0_3_Da12a__8'
p1972
F1.0681566666666666
sS'30_3_0_3_Da12a_Fa12a_8'
p1973
F0.013698766666666667
sS'spe10_3_0_3_Da12a__2'
p1974
F1.8413366666666668
sS'30_3_0_3_Da12a_Fa12a_4'
p1975
F0.012876633333333333
sS'spe10_3_0_3_Da12a__1'
p1976
F2.092211666666667
sS'30_3_0_3_Da12a_Fa12a_1'
p1977
F0.01934406666666667
sS'spe10_3_0_3_Da12a__4'
p1978
F1.2643816666666667
sS'30_3_0_3_Da12a_Fa12a_2'
p1979
F0.015981933333333333
sS'80_3_0_3_Da2a_Fa24a_2'
p1980
F0.28637049999999997
sS'30_8_0___Fa36a_4'
p1981
F0.114604
sS'30_8_0___Fa36a_2'
p1982
F0.20178116666666668
sS'30_8_0___Fa36a_1'
p1983
F0.17120366666666664
sS'spe10_3_0__Da4a_Fa6a_4'
p1984
F4.2728483333333331
sS'spe10_3_0__Da4a_Fa6a_1'
p1985
F2.1110883333333335
sS'spe10_3_0__Da4a_Fa6a_2'
p1986
F6.2814416666666659
sS'spe10_3_0__Da2a_Fa6a_2'
p1987
F6.0142683333333338
sS'80_3_0_3_Da2a__12'
p1988
F0.1612085
sS'30_1_0_3_Da8a_Fa18a_2'
p1989
F0.0047534249999999995
sS'30_3_0__Da12a__2'
p1990
F0.061161433333333327
sS'30_8_0___Fa24a_12'
p1991
F0.067964783333333334
sS'100_1_0__Da12a__4'
p1992
F0.48415316666666658
sS'100_3_0__Da2a_Fa12a_12'
p1993
F0.55884833333333328
sS'30_8_0_3__Fa12a_8'
p1994
F0.063912100000000013
sS'100_1_0_3__Fa36a_12'
p1995
F0.096094066666666658
sS'30_8_0_3__Fa12a_4'
p1996
F0.070774116666666664
sS'30_8_0_3__Fa12a_1'
p1997
F0.17131666666666667
sS'30_8_0_3__Fa12a_2'
p1998
F0.10589383333333331
sS'100_1_0__Da8a_Fa6a_12'
p1999
F0.23435550000000002
sS'80_3_0_3__Fa24a_12'
p2000
F0.16246833333333333
sS'100_8_0_3_Da8a_Fa18a_12'
p2001
F2.0150516666666669
sS'100_3_0__Da8a__2'
p2002
F1.9191933333333331
sS'spe10_3_0_3_Da4a_Fa18a_4'
p2003
F1.3365583333333335
sS'100_3_0__Da8a__1'
p2004
F0.64569583333333336
sS'spe10_3_0_3_Da4a_Fa18a_2'
p2005
F1.9917233333333331
sS'100_8_0_3__Fa12a_12'
p2006
F2.073915
sS'100_3_0__Da8a__4'
p2007
F1.1073316666666666
sS'spe10_3_0_3_Da4a_Fa18a_1'
p2008
F2.0877866666666667
sS'30_3_0_3_Da4a_Fa6a_12'
p2009
F0.015579400000000002
sS'100_3_0__Da8a__8'
p2010
F0.70312999999999992
sS'spe10_3_0_3_Da4a_Fa18a_8'
p2011
F1.1178366666666666
sS'100_1_0_3_Da4a_Fa18a_12'
p2012
F0.090221050000000011
sS'80_1_0__Da4a_Fa12a_1'
p2013
F0.075589183333333337
sS'80_1_0__Da4a_Fa12a_2'
p2014
F0.27845966666666666
sS'30_8_0__Da12a_Fa24a_8'
p2015
F0.078212099999999993
sS'80_1_0__Da4a_Fa12a_4'
p2016
F0.16012933333333335
sS'spe10_3_0_3__Fa12a_1'
p2017
F2.0815399999999999
sS'80_1_0__Da4a_Fa12a_8'
p2018
F0.11342666666666666
sS'30_8_0__Da12a_Fa24a_2'
p2019
F0.18995150000000002
sS'30_8_0__Da12a_Fa24a_1'
p2020
F0.17119416666666668
sS'80_8_0_3_Da2a_Fa18a_4'
p2021
F1.18055
sS'80_8_0_3_Da2a_Fa18a_2'
p2022
F1.8241216666666666
sS'80_8_0_3_Da2a_Fa18a_1'
p2023
F3.0355433333333335
sS'30_8_0__Da12a_Fa24a_4'
p2024
F0.11082983333333334
sS'100_8_0__Da4a_Fa36a_12'
p2025
F2.4193649999999995
sS'30_1_0_3_Da2a_Fa18a_12'
p2026
F0.0035553433333333326
sS'30_1_0__Da8a_Fa36a_12'
p2027
F0.0040001933333333331
sS'30_1_0__Da12a_Fa24a_12'
p2028
F0.0057819783333333333
sS'30_8_0_3_Da12a_Fa6a_4'
p2029
F0.081116783333333331
sS'80_8_0__Da8a_Fa18a_8'
p2030
F1.2591333333333334
sS'30_8_0_3_Da12a_Fa6a_2'
p2031
F0.10207633333333332
sS'100_1_0__Da2a_Fa18a_1'
p2032
F0.14787916666666667
sS'100_1_0__Da2a_Fa18a_2'
p2033
F0.49384716666666667
sS'30_8_0_3_Da12a_Fa6a_1'
p2034
F0.1710088333333333
sS'80_8_0__Da8a_Fa18a_2'
p2035
F3.230491666666667
sS'80_8_0__Da8a_Fa18a_1'
p2036
F3.0411750000000004
sS'100_1_0__Da2a_Fa18a_8'
p2037
F0.17619166666666666
sS'30_8_0_3_Da12a_Fa6a_8'
p2038
F0.089095600000000011
sS'80_8_0__Da8a_Fa18a_4'
p2039
F1.8286750000000003
sS'80_1_0__Da8a_Fa6a_8'
p2040
F0.1125795
sS'100_8_0_3_Da12a_Fa18a_8'
p2041
F1.94635
sS'80_1_0__Da8a_Fa6a_4'
p2042
F0.13509233333333331
sS'80_1_0__Da8a_Fa6a_1'
p2043
F0.07521283333333334
sS'80_1_0__Da8a_Fa6a_2'
p2044
F0.22494749999999999
sS'100_1_0_3_Da4a_Fa6a_4'
p2045
F0.11989066666666666
sS'100_8_0_3_Da8a_Fa24a_8'
p2046
F1.9189833333333333
sS'100_1_0_3_Da4a_Fa6a_1'
p2047
F0.14783550000000001
sS'100_1_0_3_Da4a_Fa6a_2'
p2048
F0.17217983333333334
sS'100_8_0_3_Da8a_Fa24a_2'
p2049
F3.3597433333333337
sS'100_8_0_3_Da8a_Fa24a_1'
p2050
F5.9596366666666674
sS'100_1_0_3_Da4a_Fa6a_8'
p2051
F0.11609200000000001
sS'100_8_0_3_Da8a_Fa24a_4'
p2052
F2.2166216666666667
sS'spe10_3_0_3_Da12a_Fa36a_12'
p2053
F1.0653033333333333
sS'80_1_0_3_Da8a_Fa24a_8'
p2054
F0.049045650000000003
sS'80_1_0_3_Da8a_Fa24a_1'
p2055
F0.076132066666666665
sS'80_1_0_3_Da8a_Fa24a_2'
p2056
F0.085824116666666672
sS'80_1_0_3_Da8a_Fa24a_4'
p2057
F0.058637650000000006
sS'100_1_0___Fa6a_8'
p2058
F0.276281
sS'30_8_0__Da4a_Fa36a_2'
p2059
F0.20339683333333333
sS'100_8_0_3_Da12a_Fa18a_1'
p2060
F5.9413433333333332
sS'30_8_0__Da4a_Fa36a_1'
p2061
F0.17156483333333331
sS'30_8_0__Da4a_Fa36a_4'
p2062
F0.11614083333333332
sS'80_8_0_3__Fa12a_8'
p2063
F1.0134416666666668
sS'spe10_3_0_3_Da8a_Fa12a_12'
p2064
F1.2854733333333332
sS'30_8_0__Da4a_Fa36a_8'
p2065
F0.078230250000000001
sS'80_8_0_3__Fa12a_4'
p2066
F1.1627799999999999
sS'80_8_0_3__Fa12a_2'
p2067
F1.7853399999999999
sS'80_3_0___Fa6a_12'
p2068
F0.44656233333333334
sS'spe10_3_0__Da2a_Fa18a_8'
p2069
F1.9347616666666667
sS'30_1_0_3_Da4a_Fa6a_4'
p2070
F0.0035513216666666664
sS'100_8_0_3_Da8a_Fa24a_12'
p2071
F1.9332750000000001
sS'30_1_0_3_Da4a_Fa6a_1'
p2072
F0.0037780283333333328
sS'100_8_0_3_Da12a_Fa24a_12'
p2073
F1.9741899999999999
sS'30_1_0_3_Da4a_Fa6a_2'
p2074
F0.0048400400000000003
sS'spe10_3_0__Da2a_Fa18a_1'
p2075
F2.1089350000000002
sS'spe10_3_0__Da2a_Fa18a_2'
p2076
F5.671454999999999
sS'spe10_3_0__Da2a_Fa18a_4'
p2077
F3.1387016666666661
sS'30_1_0_3_Da4a_Fa6a_8'
p2078
F0.0036029616666666668
sS'spe10_3_0__Da12a_Fa24a_2'
p2079
F6.0087599999999997
sS'spe10_3_0__Da12a_Fa24a_1'
p2080
F2.0820966666666667
sS'100_8_0__Da4a__4'
p2081
F4.985663333333334
sS'80_1_0_3_Da4a__12'
p2082
F0.046195733333333343
sS'spe10_3_0__Da12a_Fa24a_4'
p2083
F3.3735116666666669
sS'spe10_3_0__Da12a_Fa24a_8'
p2084
F2.1486633333333334
sS'80_1_0_3_Da2a_Fa18a_12'
p2085
F0.049519433333333335
sS'100_1_0__Da4a_Fa36a_8'
p2086
F0.19233066666666668
sS'spe10_3_0__Da4a_Fa24a_12'
p2087
F1.7098333333333333
sS'spe10_3_0_3__Fa6a_12'
p2088
F1.8751533333333334
sS'80_1_0_3_Da4a_Fa24a_2'
p2089
F0.091173666666666653
sS'30_8_0__Da4a__8'
p2090
F0.086086050000000011
sS'100_3_0_3_Da2a_Fa24a_8'
p2091
F0.31351499999999999
sS'30_8_0__Da4a__1'
p2092
F0.17080999999999999
sS'30_8_0__Da4a__2'
p2093
F0.22590999999999997
sS'30_8_0__Da4a__4'
p2094
F0.13058016666666664
sS'100_3_0_3_Da2a_Fa24a_2'
p2095
F0.5493353333333334
sS'80_3_0_3_Da2a_Fa24a_4'
p2096
F0.19754466666666667
sS'30_1_0___Fa36a_4'
p2097
F0.010564200000000001
sS'30_8_0___Fa24a_8'
p2098
F0.074604483333333332
sS'30_1_0___Fa36a_1'
p2099
F0.0037416266666666664
sS'30_8_0___Fa24a_4'
p2100
F0.11159399999999998
sS'100_8_0__Da4a__8'
p2101
F3.1796366666666667
sS'30_8_0___Fa24a_1'
p2102
F0.17129249999999999
sS'30_8_0___Fa24a_2'
p2103
F0.19744399999999998
sS'80_1_0_3_Da4a_Fa24a_4'
p2104
F0.0604255
sS'80_8_0_3_Da4a_Fa12a_2'
p2105
F1.7013550000000002
sS'80_8_0_3_Da4a_Fa12a_1'
p2106
F3.0310383333333331
sS'30_3_0_3__Fa36a_12'
p2107
F0.012012333333333333
sS'80_8_0_3_Da4a_Fa12a_4'
p2108
F1.1312183333333332
sS'80_8_0_3_Da4a_Fa12a_8'
p2109
F1.0095333333333334
sS'100_1_0____12'
p2110
F2.204568333333333
sS'80_3_0__Da4a__12'
p2111
F0.43876433333333337
sS'80_8_0_3_Da2a_Fa36a_12'
p2112
F0.94158033333333335
sS'80_8_0_3_Da12a_Fa36a_2'
p2113
F1.7006283333333332
sS'80_3_0__Da4a_Fa36a_4'
p2114
F0.51059583333333325
sS'100_8_0__Da2a_Fa6a_2'
p2115
F7.7865049999999991
sS'80_3_0__Da4a_Fa36a_1'
p2116
F0.32889400000000002
sS'80_3_0__Da4a_Fa36a_2'
p2117
F0.91807766666666668
sS'100_8_0__Da2a_Fa6a_8'
p2118
F4.0179499999999999
sS'80_3_0__Da4a_Fa36a_8'
p2119
F0.31123200000000001
sS'30_1_0_3_Da12a__4'
p2120
F0.0030650716666666667
sS'30_1_0_3_Da12a__1'
p2121
F0.0037366383333333336
sS'30_1_0_3_Da12a__2'
p2122
F0.0041162400000000002
sS'100_3_0__Da12a__12'
p2123
F0.59457300000000002
sS'30_1_0_3_Da12a__8'
p2124
F0.003172923333333333
sS'80_3_0_3_Da2a_Fa6a_1'
p2125
F0.32929633333333336
sS'80_3_0_3_Da2a_Fa6a_2'
p2126
F0.28067316666666664
sS'80_3_0_3_Da2a_Fa6a_4'
p2127
F0.203819
sS'80_3_0_3_Da2a_Fa6a_8'
p2128
F0.20750749999999998
sS'100_8_0_3_Da2a__12'
p2129
F1.816865
sS'spe10_3_0_3_Da8a_Fa18a_8'
p2130
F1.1015433333333335
sS'80_3_0__Da12a_Fa12a_12'
p2131
F0.28217549999999997
sS'100_1_0_3_Da12a_Fa18a_2'
p2132
F0.15240566666666666
sS'100_3_0_3_Da4a__1'
p2133
F0.64585550000000003
sS'spe10_3_0_3_Da8a_Fa18a_2'
p2134
F1.8658849999999998
sS'spe10_3_0_3_Da8a_Fa18a_1'
p2135
F2.0828983333333331
sS'spe10_3_0_3_Da8a_Fa18a_4'
p2136
F1.2854566666666667
sS'100_8_0_3__Fa6a_1'
p2137
F5.9553349999999989
sS'100_8_0___Fa24a_12'
p2138
F2.3436166666666667
sS'100_8_0_3___12'
p2139
F1.7843
sS'100_1_0_3_Da8a__2'
p2140
F0.16342533333333334
sS'80_8_0__Da12a_Fa24a_8'
p2141
F1.4031616666666666
sS'80_8_0__Da12a_Fa12a_12'
p2142
F1.3645566666666664
sS'100_1_0_3_Da8a_Fa12a_8'
p2143
F0.093010183333333343
sS'100_1_0_3_Da8a_Fa12a_4'
p2144
F0.11034683333333334
sS'80_8_0__Da12a_Fa24a_1'
p2145
F3.0370566666666665
sS'80_8_0__Da12a_Fa24a_2'
p2146
F3.5903416666666668
sS'80_8_0__Da12a_Fa24a_4'
p2147
F2.0528033333333333
sS'100_1_0_3_Da8a_Fa12a_1'
p2148
F0.14846416666666665
sS'30_8_0_3_Da4a_Fa36a_12'
p2149
F0.070565033333333346
sS'30_1_0__Da4a_Fa24a_12'
p2150
F0.0065625700000000002
sS'100_3_0_3_Da2a_Fa18a_12'
p2151
F0.31292516666666664
sS'100_8_0__Da4a_Fa6a_12'
p2152
F4.4673150000000001
sS'30_8_0__Da2a_Fa36a_4'
p2153
F0.11625383333333332
sS'100_3_0_3_Da12a_Fa12a_8'
p2154
F0.3189501666666667
sS'80_1_0__Da2a_Fa6a_12'
p2155
F0.15416433333333335
sS'80_8_0_3_Da4a__2'
p2156
F1.7212599999999998
sS'30_8_0__Da2a_Fa36a_1'
p2157
F0.17106316666666666
sS'30_8_0__Da2a_Fa36a_2'
p2158
F0.20404450000000005
sS'30_3_0_3_Da8a_Fa36a_4'
p2159
F0.013180983333333335
sS'30_3_0_3_Da8a_Fa36a_2'
p2160
F0.016943116666666667
sS'30_3_0_3_Da8a_Fa36a_1'
p2161
F0.01929175
sS'30_8_0__Da2a_Fa12a_2'
p2162
F0.19516799999999998
sS'100_8_0_3__Fa6a_12'
p2163
F2.8641516666666669
sS'30_3_0_3_Da8a_Fa36a_8'
p2164
F0.013899366666666668
sS'80_1_0__Da4a_Fa36a_2'
p2165
F0.28903899999999999
sS'100_3_0_3_Da12a_Fa12a_4'
p2166
F0.34549466666666667
sS'80_1_0__Da4a_Fa36a_1'
p2167
F0.075762883333333322
sS'80_1_0__Da4a_Fa36a_4'
p2168
F0.16326199999999999
sS'80_1_0__Da4a_Fa36a_8'
p2169
F0.10202500000000002
sS'30_3_0_3_Da8a_Fa12a_2'
p2170
F0.016932716666666667
sS'30_1_0__Da2a_Fa18a_4'
p2171
F0.0083843583333333346
sS'30_1_0__Da2a_Fa18a_1'
p2172
F0.0037354849999999998
sS'30_1_0__Da2a_Fa18a_2'
p2173
F0.012804033333333333
sS'30_1_0__Da2a_Fa18a_8'
p2174
F0.0062940916666666671
sS'30_3_0_3_Da4a_Fa18a_2'
p2175
F0.01721841666666667
sS'30_3_0_3_Da4a_Fa18a_1'
p2176
F0.019415699999999998
sS'100_3_0__Da2a_Fa24a_12'
p2177
F0.47332716666666669
sS'30_8_0___Fa18a_12'
p2178
F0.072519219999999995
sS'30_3_0_3_Da4a_Fa18a_4'
p2179
F0.012632766666666668
sS'30_3_0_3_Da4a_Fa18a_8'
p2180
F0.011723533333333334
sS'spe10_3_0_3_Da8a__12'
p2181
F1.0508250000000001
sS'100_8_0__Da2a__12'
p2182
F3.3771
sS'100_3_0__Da12a_Fa18a_12'
p2183
F0.5557278333333332
sS'80_3_0_3_Da8a_Fa6a_12'
p2184
F0.227746
sS'100_8_0_3_Da4a_Fa6a_4'
p2185
F2.3933633333333333
sS'100_3_0__Da4a_Fa6a_12'
p2186
F0.92184199999999994
sS'30_3_0_3_Da8a_Fa36a_12'
p2187
F0.015291816666666666
sS'80_8_0__Da4a_Fa12a_12'
p2188
F1.3764399999999999
sS'80_3_0__Da2a__1'
p2189
F0.32862033333333335
sS'100_1_0__Da2a_Fa18a_4'
p2190
F0.27594033333333334
sS'100_1_0___Fa6a_1'
p2191
F0.14909316666666669
sS'100_1_0___Fa6a_2'
p2192
F0.52684633333333342
sS'100_1_0___Fa6a_4'
p2193
F0.31876383333333336
sS'spe10_3_0_3_Da2a_Fa36a_12'
p2194
F1.0574783333333333
sS'100_8_0__Da2a_Fa36a_8'
p2195
F2.6286066666666668
sS'80_3_0__Da2a__2'
p2196
F1.7628316666666664
sS'100_8_0__Da2a_Fa36a_1'
p2197
F5.9675983333333322
sS'100_8_0__Da2a_Fa36a_2'
p2198
F7.2199549999999997
sS'100_1_0_3_Da8a__8'
p2199
F0.090774200000000013
sS'spe10_3_0__Da4a__8'
p2200
F3.3939366666666668
sS'spe10_3_0__Da4a__4'
p2201
F5.1419483333333336
sS'80_1_0__Da8a_Fa18a_1'
p2202
F0.075479049999999992
sS'spe10_3_0_3_Da12a_Fa24a_12'
p2203
F1.12016
sS'spe10_3_0__Da4a__2'
p2204
F8.6066233333333333
sS'80_1_0___Fa6a_4'
p2205
F0.16238450000000001
sS'100_8_0_3_Da2a__8'
p2206
F1.8832916666666666
sS'80_8_0___Fa18a_12'
p2207
F1.2478799999999999
sS'80_1_0_3__Fa24a_1'
p2208
F0.075833833333333336
sS'80_1_0_3__Fa24a_2'
p2209
F0.13108533333333333
sS'80_1_0_3__Fa24a_4'
p2210
F0.079852883333333333
sS'30_1_0__Da12a_Fa36a_12'
p2211
F0.005962161666666666
sS'80_8_0_3_Da12a_Fa6a_1'
p2212
F3.0339766666666663
sS'30_1_0_3_Da8a_Fa24a_8'
p2213
F0.0034970050000000005
sS'80_8_0_3_Da12a_Fa6a_2'
p2214
F1.7181533333333334
sS'80_1_0____8'
p2215
F1.2583950000000002
sS'30_1_0_3_Da8a_Fa24a_4'
p2216
F0.0034177516666666669
sS'30_1_0_3_Da8a_Fa24a_2'
p2217
F0.0047348566666666663
sS'80_8_0_3_Da12a_Fa6a_8'
p2218
F1.2970833333333331
sS'80_1_0___Fa6a_1'
p2219
F0.075271099999999994
sS'80_3_0_3_Da2a_Fa12a_12'
p2220
F0.18141416666666665
sS'30_1_0_3__Fa12a_12'
p2221
F0.0039778549999999998
sS'30_8_0__Da4a_Fa24a_12'
p2222
F0.072691750000000013
sS'80_8_0_3_Da8a_Fa24a_8'
p2223
F1.0182183333333332
sS'80_1_0_3_Da8a__12'
p2224
F0.049656866666666667
sS'80_8_0_3_Da8a_Fa24a_4'
p2225
F1.1460900000000001
sS'80_8_0_3_Da8a_Fa24a_2'
p2226
F1.7282066666666667
sS'100_1_0_3_Da2a_Fa12a_1'
p2227
F0.14863649999999998
sS'80_8_0_3_Da8a_Fa24a_1'
p2228
F3.0336149999999997
sS'100_1_0__Da8a_Fa18a_8'
p2229
F0.14839749999999999
sS'100_1_0__Da8a_Fa18a_2'
p2230
F0.43337633333333336
sS'100_1_0__Da8a_Fa18a_1'
p2231
F0.15038849999999998
sS'100_1_0__Da8a_Fa18a_4'
p2232
F0.24071516666666667
sS'80_1_0_3_Da8a_Fa36a_12'
p2233
F0.049420316666666665
sS'80_1_0____2'
p2234
F2.3409616666666664
sS'80_3_0___Fa36a_12'
p2235
F0.23609516666666666
sS'100_3_0__Da8a__12'
p2236
F0.57921133333333341
sS'100_1_0__Da12a__8'
p2237
F0.31328050000000002
sS'100_8_0__Da12a_Fa24a_12'
p2238
F2.5894033333333333
sS'80_1_0__Da4a_Fa18a_12'
p2239
F0.096245399999999995
sS'100_1_0__Da4a_Fa6a_12'
p2240
F0.308369
sS'80_1_0_3_Da4a_Fa24a_1'
p2241
F0.076262966666666668
sS'100_3_0_3___8'
p2242
F0.32673483333333331
sS'100_3_0__Da2a_Fa18a_2'
p2243
F1.7097583333333333
sS'100_3_0__Da2a_Fa18a_1'
p2244
F0.6446721666666666
sS'100_3_0__Da2a_Fa18a_4'
p2245
F0.94558283333333337
sS'100_3_0__Da2a_Fa18a_8'
p2246
F0.58472699999999989
sS'100_1_0_3__Fa36a_1'
p2247
F0.14909483333333334
sS'30_8_0_3_Da4a_Fa6a_8'
p2248
F0.080104533333333339
sS'30_8_0_3_Da4a_Fa6a_4'
p2249
F0.076248283333333333
sS'30_8_0__Da2a_Fa36a_12'
p2250
F0.069196066666666667
sS'30_8_0_3_Da4a_Fa6a_1'
p2251
F0.17098583333333336
sS'30_8_0_3_Da4a_Fa6a_2'
p2252
F0.10289250000000001
sS'80_8_0_3_Da4a_Fa36a_8'
p2253
F0.9514271666666666
sS'100_1_0_3_Da4a_Fa6a_12'
p2254
F0.12863433333333332
sS'100_1_0__Da12a_Fa36a_1'
p2255
F0.14891133333333331
sS'80_8_0_3_Da4a_Fa36a_1'
p2256
F3.0302249999999997
sS'100_3_0__Da4a_Fa12a_2'
p2257
F1.8232133333333334
sS'80_8_0_3_Da4a_Fa36a_2'
p2258
F1.7182599999999999
sS'spe10_3_0__Da4a_Fa36a_12'
p2259
F1.6300483333333335
sS'100_3_0_3___4'
p2260
F0.40101300000000001
sS'100_1_0__Da12a_Fa36a_4'
p2261
F0.29679149999999999
sS'100_8_0_3_Da12a__1'
p2262
F5.9498616666666662
sS'100_3_0_3_Da8a_Fa6a_12'
p2263
F0.43205300000000002
sS'100_8_0_3_Da12a__2'
p2264
F3.3347099999999998
sS'80_3_0__Da8a_Fa24a_2'
p2265
F0.77890716666666659
sS'80_3_0__Da8a_Fa24a_1'
p2266
F0.32879733333333333
sS'100_1_0__Da12a_Fa12a_4'
p2267
F0.29687599999999997
sS'80_1_0_3_Da8a_Fa18a_12'
p2268
F0.050135116666666667
sS'80_3_0__Da8a_Fa24a_4'
p2269
F0.43087883333333332
sS'30_8_0_3_Da2a_Fa6a_12'
p2270
F0.092366499999999976
sS'80_3_0__Da8a_Fa24a_8'
p2271
F0.26063833333333336
sS'30_8_0_3__Fa18a_12'
p2272
F0.064277866666666669
sS'100_1_0__Da12a_Fa36a_8'
p2273
F0.18627066666666667
sS'80_3_0_3_Da2a_Fa36a_12'
p2274
F0.16092649999999997
sS'80_3_0_3_Da4a__12'
p2275
F0.15671466666666667
sS'spe10_3_0_3__Fa36a_2'
p2276
F2.1360333333333332
sS'80_1_0___Fa36a_12'
p2277
F0.079204300000000005
sS'80_8_0_3_Da12a_Fa12a_2'
p2278
F1.6977316666666666
sS'100_3_0__Da12a_Fa24a_2'
p2279
F1.7318600000000002
sS'80_3_0_3__Fa18a_12'
p2280
F0.16719266666666666
sS'100_1_0___Fa24a_1'
p2281
F0.14833816666666666
sS'100_1_0_3_Da12a_Fa12a_2'
p2282
F0.1515965
sS'100_1_0_3_Da12a_Fa12a_1'
p2283
F0.1489885
sS'80_1_0_3__Fa12a_8'
p2284
F0.056657233333333334
sS'100_1_0_3_Da12a_Fa12a_4'
p2285
F0.10595016666666666
sS'30_1_0__Da2a_Fa18a_12'
p2286
F0.0063295366666666656
sS'80_1_0_3__Fa12a_4'
p2287
F0.077451199999999998
sS'100_1_0_3_Da12a_Fa12a_8'
p2288
F0.091466933333333333
sS'80_1_0_3__Fa12a_1'
p2289
F0.075140633333333332
sS'80_1_0_3__Fa12a_2'
p2290
F0.12697449999999999
sS'80_3_0_3_Da12a_Fa6a_8'
p2291
F0.19903566666666669
sS'80_3_0_3__Fa24a_4'
p2292
F0.20346683333333329
sS'80_3_0_3__Fa24a_2'
p2293
F0.3001125
sS'80_3_0_3__Fa24a_1'
p2294
F0.32930300000000001
sS'80_3_0_3_Da12a_Fa6a_1'
p2295
F0.32784483333333336
sS'80_3_0_3_Da12a_Fa6a_2'
p2296
F0.2364806666666667
sS'100_8_0_3_Da12a_Fa6a_2'
p2297
F3.3561416666666672
sS'80_3_0_3_Da12a_Fa6a_4'
p2298
F0.18686650000000002
sS'80_3_0_3__Fa24a_8'
p2299
F0.1673405
sS'100_3_0_3_Da4a__2'
p2300
F0.50089683333333335
sS'100_1_0_3_Da12a__4'
p2301
F0.10635683333333333
sS'100_1_0_3_Da12a__2'
p2302
F0.15308450000000001
sS'30_3_0__Da4a_Fa36a_12'
p2303
F0.0193685
sS'100_1_0_3_Da12a__8'
p2304
F0.089555583333333341
sS'30_1_0__Da12a_Fa18a_12'
p2305
F0.0058750233333333332
sS'80_1_0__Da2a_Fa6a_4'
p2306
F0.16269633333333333
sS'80_8_0_3_Da12a_Fa12a_8'
p2307
F1.0647166666666668
sS'80_1_0__Da2a_Fa6a_2'
p2308
F0.25651600000000002
sS'80_1_0__Da2a_Fa6a_1'
p2309
F0.075107949999999993
sS'30_3_0___Fa36a_1'
p2310
F0.019404149999999998
sS'30_3_0___Fa36a_2'
p2311
F0.055346133333333325
sS'30_3_0___Fa36a_4'
p2312
F0.03309758333333334
sS'80_1_0__Da2a_Fa6a_8'
p2313
F0.13999166666666665
sS'100_8_0_3_Da12a_Fa6a_8'
p2314
F2.4492850000000002
sS'80_3_0___Fa24a_8'
p2315
F0.28964316666666667
sS'80_3_0___Fa24a_2'
p2316
F0.86523833333333322
sS'80_3_0___Fa24a_1'
p2317
F0.32830416666666667
sS'80_3_0___Fa24a_4'
p2318
F0.47854816666666666
sS'30_3_0__Da12a__12'
p2319
F0.01904918333333333
sS'100_8_0__Da2a_Fa12a_8'
p2320
F3.0615749999999999
sS'100_8_0__Da2a_Fa12a_4'
p2321
F4.2672400000000001
sS'100_8_0__Da2a_Fa12a_2'
p2322
F7.4757066666666665
sS'100_8_0__Da2a_Fa12a_1'
p2323
F5.9640099999999991
sS'80_1_0_3_Da4a_Fa24a_12'
p2324
F0.046608050000000005
sS'80_3_0_3_Da8a_Fa18a_8'
p2325
F0.16628283333333335
sS'80_3_0_3_Da8a_Fa18a_4'
p2326
F0.18523849999999997
sS'30_3_0__Da8a__12'
p2327
F0.017731616666666668
sS'80_3_0_3_Da8a_Fa18a_1'
p2328
F0.32832633333333333
sS'80_3_0_3_Da8a_Fa18a_2'
p2329
F0.25311183333333337
sS'100_8_0_3_Da2a_Fa6a_8'
p2330
F2.3877299999999999
sS'100_8_0_3_Da2a_Fa6a_2'
p2331
F3.4778583333333333
sS'100_8_0_3_Da2a_Fa6a_1'
p2332
F5.9427650000000005
sS'100_8_0_3_Da2a_Fa6a_4'
p2333
F2.4019416666666662
sS'80_8_0_3_Da4a_Fa6a_12'
p2334
F1.4598016666666667
sS'100_3_0__Da12a__8'
p2335
F0.74295966666666668
sS'spe10_3_0___Fa12a_12'
p2336
F1.7563633333333331
sS'30_1_0__Da4a_Fa12a_1'
p2337
F0.0037774883333333334
sS'30_1_0_3_Da4a_Fa12a_2'
p2338
F0.0049757216666666661
sS'30_1_0_3_Da4a_Fa12a_1'
p2339
F0.0037263816666666671
sS'30_1_0__Da4a_Fa12a_2'
p2340
F0.013039599999999998
sS'80_3_0__Da2a__4'
p2341
F1.1500666666666666
sS'30_1_0__Da4a_Fa12a_4'
p2342
F0.0085341616666666665
sS'100_8_0__Da4a__1'
p2343
F5.9541616666666668
sS'30_1_0_3_Da4a_Fa12a_4'
p2344
F0.003301061666666666
sS'80_3_0__Da2a__8'
p2345
F0.84366966666666665
sS'30_1_0__Da4a_Fa12a_8'
p2346
F0.0067073999999999996
sS'30_1_0_3_Da4a_Fa12a_8'
p2347
F0.0029431399999999999
sS'80_3_0__Da4a_Fa24a_2'
p2348
F0.9053998333333334
sS'30_3_0_3_Da12a__4'
p2349
F0.01290645
sS'30_3_0_3_Da12a__2'
p2350
F0.0159259
sS'30_3_0_3_Da12a__1'
p2351
F0.019311450000000004
sS'100_3_0_3_Da8a__12'
p2352
F0.31188016666666668
sS'30_3_0_3_Da12a__8'
p2353
F0.013689949999999999
sS'30_1_0__Da2a_Fa36a_12'
p2354
F0.0072105299999999997
sS'spe10_3_0__Da2a_Fa36a_8'
p2355
F1.8840516666666669
sS'30_3_0_3_Da8a_Fa12a_8'
p2356
F0.013860166666666666
sS'30_8_0__Da2a_Fa12a_8'
p2357
F0.084460783333333331
sS'spe10_3_0__Da2a_Fa36a_4'
p2358
F3.1395016666666664
sS'30_3_0_3_Da8a_Fa12a_4'
p2359
F0.013198933333333334
sS'30_8_0__Da2a_Fa12a_4'
p2360
F0.113763
sS'30_3_0_3_Da8a_Fa12a_1'
p2361
F0.01931745
sS'spe10_3_0__Da2a_Fa36a_1'
p2362
F2.0841249999999998
sS'spe10_3_0__Da2a_Fa36a_2'
p2363
F5.7435583333333335
sS'30_8_0__Da2a_Fa12a_1'
p2364
F0.1712525
sS'100_1_0_3_Da2a_Fa36a_12'
p2365
F0.091930283333333349
sS'spe10_3_0__Da8a_Fa24a_12'
p2366
F1.8276633333333334
sS'30_1_0___Fa12a_4'
p2367
F0.0076905216666666677
sS'100_1_0__Da12a__12'
p2368
F0.26375149999999997
sS'30_1_0___Fa12a_1'
p2369
F0.0037715533333333336
sS'30_1_0___Fa12a_2'
p2370
F0.011813633333333332
sS'100_8_0_3_Da8a_Fa6a_12'
p2371
F2.8913550000000003
sS'30_1_0___Fa12a_8'
p2372
F0.0063077000000000003
sS'30_3_0_3_Da4a_Fa36a_12'
p2373
F0.012612533333333335
sS'100_1_0_3_Da4a_Fa24a_2'
p2374
F0.17415083333333334
sS'100_8_0_3_Da2a_Fa36a_12'
p2375
F1.8040066666666668
sS'100_3_0_3_Da4a_Fa24a_12'
p2376
F0.30078116666666671
sS'80_3_0_3_Da2a_Fa24a_12'
p2377
F0.16015299999999999
sS'spe10_3_0___Fa24a_8'
p2378
F1.8211533333333334
sS'spe10_3_0___Fa24a_4'
p2379
F3.043801666666667
sS'spe10_3_0___Fa24a_1'
p2380
F2.1091183333333334
sS'spe10_3_0___Fa24a_2'
p2381
F5.5559216666666673
sS'30_1_0_3_Da4a_Fa36a_8'
p2382
F0.0028703900000000004
sS'80_8_0_3_Da12a_Fa12a_1'
p2383
F3.0312133333333335
sS'100_8_0_3_Da12a_Fa6a_1'
p2384
F5.927926666666667
sS'80_8_0_3_Da12a_Fa12a_4'
p2385
F1.1427849999999999
sS'30_1_0_3_Da4a_Fa36a_1'
p2386
F0.0038078350000000003
sS'80_3_0_3_Da8a__12'
p2387
F0.16941349999999999
sS'30_1_0_3_Da4a_Fa36a_2'
p2388
F0.0050298233333333333
sS'30_1_0_3_Da4a_Fa36a_4'
p2389
F0.0033115916666666672
sS'80_1_0__Da8a_Fa36a_4'
p2390
F0.12330000000000001
sS'80_1_0__Da8a_Fa36a_2'
p2391
F0.21856249999999999
sS'100_1_0___Fa36a_4'
p2392
F0.29133266666666663
sS'80_1_0__Da8a_Fa36a_1'
p2393
F0.075031899999999999
sS'80_8_0__Da8a_Fa24a_4'
p2394
F1.8114216666666667
sS'100_8_0_3_Da4a_Fa18a_12'
p2395
F1.9010083333333332
sS'80_1_0__Da8a_Fa36a_8'
p2396
F0.075410133333333337
sS'30_8_0_3_Da12a_Fa18a_8'
p2397
F0.082372899999999999
sS'100_1_0_3_Da4a_Fa24a_8'
p2398
F0.090976983333333331
sS'80_8_0_3__Fa24a_4'
p2399
F1.1606350000000001
sS'80_8_0_3__Fa24a_2'
p2400
F1.7971250000000001
sS'80_8_0_3__Fa24a_1'
p2401
F3.0275416666666661
sS'100_1_0_3_Da4a_Fa24a_1'
p2402
F0.14848816666666664
sS'30_8_0_3_Da12a_Fa18a_1'
p2403
F0.17054083333333334
sS'30_8_0_3_Da12a_Fa18a_2'
p2404
F0.10320683333333332
sS'30_1_0_3_Da2a_Fa18a_8'
p2405
F0.003480133333333333
sS'30_8_0_3_Da12a_Fa18a_4'
p2406
F0.077838199999999996
sS'100_1_0_3_Da4a_Fa24a_4'
p2407
F0.11522699999999998
sS'80_8_0_3__Fa24a_8'
p2408
F0.95395699999999994
sS'100_8_0_3_Da12a_Fa24a_2'
p2409
F3.3370849999999996
sS'100_8_0_3_Da12a_Fa24a_1'
p2410
F5.942028333333333
sS'100_8_0_3_Da12a_Fa24a_4'
p2411
F2.2037816666666665
sS'80_1_0__Da2a_Fa24a_8'
p2412
F0.089792816666666664
sS'100_3_0___Fa36a_12'
p2413
F0.45916616666666665
sS'100_8_0_3_Da12a_Fa24a_8'
p2414
F1.93241
sS'80_1_0__Da2a_Fa24a_4'
p2415
F0.14309400000000003
sS'30_1_0_3_Da2a_Fa6a_12'
p2416
F0.0045899383333333332
sS'80_1_0__Da2a_Fa24a_1'
p2417
F0.075840100000000008
sS'100_8_0__Da2a_Fa18a_12'
p2418
F2.6020816666666668
sS'spe10_3_0__Da12a_Fa18a_1'
p2419
F2.081736666666667
sS'spe10_3_0__Da12a_Fa18a_2'
p2420
F6.0003216666666672
sS'spe10_3_0__Da12a_Fa18a_4'
p2421
F3.4426666666666672
sS'spe10_3_0__Da12a_Fa18a_8'
p2422
F2.3326733333333332
sS'80_1_0__Da2a_Fa24a_2'
p2423
F0.25594233333333333
sS'100_3_0___Fa18a_4'
p2424
F0.94882200000000017
sS'spe10_3_0_3_Da2a__8'
p2425
F1.148925
sS'100_3_0__Da8a_Fa24a_4'
p2426
F0.84839183333333335
sS'30_1_0_3_Da2a_Fa18a_1'
p2427
F0.0037364633333333334
sS'100_3_0___Fa18a_2'
p2428
F1.725811666666667
sS'spe10_3_0_3_Da2a__2'
p2429
F2.2799316666666667
sS'spe10_3_0__Da2a_Fa12a_12'
p2430
F1.829105
sS'spe10_3_0_3_Da2a__1'
p2431
F2.0837216666666669
sS'100_3_0___Fa18a_8'
p2432
F0.57845233333333335
sS'spe10_3_0_3_Da2a__4'
p2433
F1.4861466666666665
sS'100_3_0__Da8a_Fa24a_8'
p2434
F0.51094899999999999
sS'30_8_0_3__Fa18a_8'
p2435
F0.0603765
sS'100_1_0__Da12a_Fa24a_12'
p2436
F0.16693466666666665
sS'30_8_0_3__Fa18a_2'
p2437
F0.10712899999999999
sS'30_8_0_3__Fa18a_1'
p2438
F0.17119883333333333
sS'30_8_0_3__Fa18a_4'
p2439
F0.070149983333333346
sS'80_3_0__Da2a_Fa6a_1'
p2440
F0.3286425
sS'80_3_0__Da2a_Fa6a_2'
p2441
F0.8737343333333335
sS'80_3_0__Da2a_Fa6a_4'
p2442
F0.52459850000000008
sS'100_1_0___Fa24a_8'
p2443
F0.1743625
sS'30_8_0_3__Fa6a_12'
p2444
F0.089919783333333336
sS'100_8_0__Da8a_Fa24a_1'
p2445
F5.9601350000000002
sS'100_8_0__Da8a_Fa24a_2'
p2446
F6.6882250000000001
sS'spe10_3_0__Da8a_Fa12a_12'
p2447
F1.8629450000000001
sS'100_1_0_3_Da2a_Fa18a_8'
p2448
F0.098592200000000005
sS'100_1_0_3_Da2a_Fa18a_4'
p2449
F0.1329235
sS'100_1_0_3_Da2a_Fa18a_1'
p2450
F0.14892433333333335
sS'100_1_0_3_Da2a_Fa18a_2'
p2451
F0.21466616666666669
sS'30_8_0_3__Fa6a_8'
p2452
F0.078576799999999988
sS'30_8_0_3__Fa6a_1'
p2453
F0.17325733333333335
sS'30_8_0_3__Fa6a_2'
p2454
F0.10710000000000001
sS'30_8_0_3__Fa6a_4'
p2455
F0.077043766666666666
sS'80_8_0___Fa36a_1'
p2456
F3.0321066666666669
sS'80_3_0__Da12a_Fa36a_8'
p2457
F0.30446366666666663
sS'80_3_0__Da12a_Fa36a_4'
p2458
F0.49692950000000002
sS'80_3_0__Da12a_Fa36a_2'
p2459
F0.89257316666666675
sS'80_3_0__Da12a_Fa36a_1'
p2460
F0.32770049999999995
sS'80_1_0_3_Da12a_Fa24a_2'
p2461
F0.078493099999999996
sS'80_1_0_3_Da12a_Fa24a_1'
p2462
F0.075892683333333336
sS'80_3_0_3_Da4a_Fa12a_8'
p2463
F0.16562550000000001
sS'80_1_0_3_Da12a_Fa24a_4'
p2464
F0.054605233333333336
sS'100_1_0_3_Da8a_Fa6a_12'
p2465
F0.12304883333333333
sS'80_3_0_3_Da4a_Fa12a_4'
p2466
F0.18360666666666667
sS'80_1_0_3_Da12a_Fa24a_8'
p2467
F0.046440849999999999
sS'80_3_0_3_Da4a_Fa12a_2'
p2468
F0.253081
sS'80_3_0_3_Da8a_Fa6a_8'
p2469
F0.20057033333333332
sS'80_3_0_3_Da4a_Fa12a_1'
p2470
F0.32866183333333338
sS'30_3_0_3_Da2a_Fa6a_1'
p2471
F0.019366233333333333
sS'30_3_0__Da4a_Fa18a_12'
p2472
F0.019425750000000002
sS'30_3_0_3_Da2a_Fa6a_4'
p2473
F0.014820649999999999
sS'30_3_0_3_Da2a_Fa6a_8'
p2474
F0.015619216666666666
sS'100_3_0___Fa18a_1'
p2475
F0.64574933333333329
sS'30_3_0____4'
p2476
F0.14767783333333331
sS'30_1_0__Da2a_Fa6a_12'
p2477
F0.0086873866666666664
sS'30_3_0____1'
p2478
F0.019296883333333334
sS'100_3_0__Da8a_Fa24a_1'
p2479
F0.64530216666666662
sS'30_3_0____2'
p2480
F0.20753500000000003
sS'30_3_0____8'
p2481
F0.11092533333333333
sS'100_3_0_3_Da2a__12'
p2482
F0.30633216666666668
sS'80_3_0_3_Da8a_Fa6a_2'
p2483
F0.24983133333333338
sS'80_1_0_3_Da12a_Fa18a_12'
p2484
F0.048256833333333332
sS'80_8_0__Da2a_Fa18a_1'
p2485
F3.0227166666666663
sS'100_1_0_3_Da4a_Fa12a_12'
p2486
F0.097078166666666674
sS'80_3_0_3_Da8a_Fa6a_1'
p2487
F0.32813466666666669
sS'100_3_0__Da12a_Fa12a_8'
p2488
F0.70347400000000004
sS'100_8_0_3_Da2a_Fa36a_4'
p2489
F2.2450533333333333
sS'spe10_3_0__Da8a_Fa6a_12'
p2490
F2.9899866666666668
sS'80_8_0___Fa24a_8'
p2491
F1.3043533333333335
sS'30_8_0___Fa18a_4'
p2492
F0.11023616666666665
sS'30_8_0_3_Da2a_Fa24a_4'
p2493
F0.071584416666666664
sS'30_8_0___Fa18a_2'
p2494
F0.19481099999999998
sS'30_8_0_3_Da2a_Fa24a_2'
p2495
F0.10674633333333333
sS'30_8_0_3_Da2a_Fa24a_1'
p2496
F0.17138883333333335
sS'30_8_0___Fa18a_1'
p2497
F0.17096883333333335
sS'30_8_0___Fa18a_8'
p2498
F0.074940733333333329
sS'30_8_0_3_Da2a_Fa24a_8'
p2499
F0.065427200000000005
sS'100_3_0___Fa24a_12'
p2500
F0.46927216666666666
sS'100_8_0_3__Fa18a_1'
p2501
F5.9683966666666661
sS'80_1_0__Da2a_Fa36a_12'
p2502
F0.077337133333333322
sS'80_3_0_3__Fa6a_2'
p2503
F0.29332666666666668
sS'30_3_0___Fa12a_2'
p2504
F0.049717549999999999
sS'30_3_0___Fa12a_1'
p2505
F0.019302583333333331
sS'30_3_0___Fa12a_4'
p2506
F0.028937816666666668
sS'80_3_0_3_Da2a_Fa24a_1'
p2507
F0.32981316666666666
sS'30_3_0___Fa12a_8'
p2508
F0.020274400000000001
sS'30_1_0__Da8a_Fa18a_12'
p2509
F0.00387674
sS'30_3_0___Fa24a_4'
p2510
F0.030786850000000004
sS'30_3_0___Fa24a_2'
p2511
F0.052523833333333332
sS'30_3_0___Fa24a_1'
p2512
F0.019418000000000001
sS'30_3_0___Fa24a_8'
p2513
F0.020030633333333332
sS'100_3_0_3__Fa36a_12'
p2514
F0.30706716666666667
sS'100_3_0__Da2a_Fa24a_8'
p2515
F0.57254616666666669
sS'30_8_0__Da4a_Fa6a_12'
p2516
F0.11697766666666666
sS'spe10_3_0__Da2a_Fa12a_4'
p2517
F3.1926699999999997
sS'100_1_0_3__Fa24a_4'
p2518
F0.14748116666666666
sS'30_8_0_3_Da4a__12'
p2519
F0.070551733333333325
sS'100_1_0_3__Fa24a_2'
p2520
F0.239258
sS'100_3_0_3_Da2a_Fa12a_12'
p2521
F0.34349516666666663
sS'100_3_0_3_Da4a_Fa6a_1'
p2522
F0.64713783333333341
sS'100_1_0_3__Fa24a_8'
p2523
F0.10544749999999999
sS'30_8_0_3_Da8a_Fa24a_8'
p2524
F0.080637616666666675
sS'spe10_3_0_3__Fa18a_8'
p2525
F1.11083
sS'100_3_0_3_Da4a_Fa18a_4'
p2526
F0.35677283333333332
sS'spe10_3_0_3__Fa18a_2'
p2527
F2.0559500000000002
sS'30_8_0_3_Da8a_Fa24a_2'
p2528
F0.10526200000000001
sS'30_8_0_3_Da8a_Fa24a_4'
p2529
F0.07675683333333333
sS'spe10_3_0_3__Fa18a_4'
p2530
F1.3521483333333333
sS'80_3_0__Da8a_Fa36a_1'
p2531
F0.3278166666666667
sS'80_3_0__Da8a_Fa36a_2'
p2532
F0.77966099999999994
sS'80_3_0__Da8a_Fa36a_4'
p2533
F0.43299833333333337
sS'80_3_0__Da8a_Fa36a_8'
p2534
F0.26102249999999999
sS'100_8_0__Da8a_Fa24a_8'
p2535
F2.4865516666666667
sS'30_3_0_3_Da4a_Fa36a_8'
p2536
F0.011668116666666667
sS'80_3_0__Da2a_Fa6a_8'
p2537
F0.42137216666666671
sS'100_1_0_3_Da8a_Fa6a_2'
p2538
F0.16249800000000003
sS'100_1_0_3_Da8a_Fa6a_4'
p2539
F0.1142705
sS'30_3_0__Da4a_Fa24a_4'
p2540
F0.0330475
sS'100_1_0_3_Da8a_Fa6a_8'
p2541
F0.11203383333333333
sS'100_8_0_3_Da8a_Fa36a_8'
p2542
F1.9241316666666666
sS'80_8_0_3_Da2a_Fa18a_8'
p2543
F0.97604633333333324
sS'100_1_0__Da4a_Fa18a_4'
p2544
F0.30638166666666666
sS'30_3_0__Da12a_Fa12a_4'
p2545
F0.030560116666666668
sS'30_8_0_3_Da4a__8'
p2546
F0.064638883333333327
sS'30_3_0__Da12a_Fa12a_2'
p2547
F0.051964049999999991
sS'30_3_0__Da12a_Fa12a_1'
p2548
F0.019346666666666665
sS'100_1_0__Da4a_Fa18a_1'
p2549
F0.14804683333333332
sS'30_8_0_3_Da4a__4'
p2550
F0.070198949999999996
sS'100_1_0__Da4a__12'
p2551
F0.48901766666666674
sS'30_8_0_3_Da4a__1'
p2552
F0.17087016666666666
sS'30_8_0_3_Da4a__2'
p2553
F0.10452850000000001
sS'30_3_0__Da12a_Fa12a_8'
p2554
F0.022265099999999999
sS'spe10_3_0_3_Da2a_Fa12a_12'
p2555
F1.3745983333333334
sS'80_3_0__Da2a_Fa18a_12'
p2556
F0.25695150000000005
sS'100_3_0_3__Fa12a_12'
p2557
F0.34360533333333332
sS'100_8_0__Da2a_Fa18a_8'
p2558
F2.7611883333333331
sS'80_8_0_3_Da8a_Fa6a_1'
p2559
F3.0351949999999999
sS'80_8_0_3_Da8a_Fa12a_12'
p2560
F1.1501133333333333
sS'100_3_0_3_Da4a_Fa36a_12'
p2561
F0.29934766666666662
sS'80_3_0__Da4a_Fa12a_4'
p2562
F0.5174089999999999
sS'80_1_0__Da12a_Fa24a_8'
p2563
F0.098523233333333335
sS'80_3_0__Da4a_Fa12a_2'
p2564
F0.91004150000000006
sS'30_1_0__Da4a_Fa36a_12'
p2565
F0.0072870633333333339
sS'80_3_0__Da4a_Fa12a_1'
p2566
F0.32924833333333331
sS'80_1_0__Da12a_Fa24a_2'
p2567
F0.26941450000000006
sS'30_3_0__Da4a_Fa24a_12'
p2568
F0.018815283333333335
sS'80_3_0__Da4a_Fa12a_8'
p2569
F0.3514726666666666
sS'spe10_3_0_3_Da4a_Fa6a_1'
p2570
F2.0803950000000002
sS'100_8_0_3_Da12a_Fa12a_12'
p2571
F2.1834383333333336
sS'80_8_0_3_Da8a_Fa6a_8'
p2572
F1.2820466666666668
sS'100_8_0__Da2a_Fa18a_2'
p2573
F7.3237683333333328
sS'100_8_0__Da8a_Fa12a_12'
p2574
F2.6316999999999999
sS'30_3_0__Da8a_Fa18a_1'
p2575
F0.019299400000000005
sS'100_3_0__Da12a_Fa12a_12'
p2576
F0.55116066666666674
sS'100_3_0__Da8a_Fa24a_12'
p2577
F0.40953566666666669
sS'80_3_0_3_Da8a__2'
p2578
F0.25427716666666661
sS'80_1_0__Da4a_Fa36a_12'
p2579
F0.087395466666666657
sS'80_3_0_3_Da8a__1'
p2580
F0.32992899999999997
sS'spe10_3_0_3_Da4a_Fa36a_2'
p2581
F2.0538766666666666
sS'80_8_0__Da4a_Fa6a_12'
p2582
F2.1690233333333335
sS'80_3_0_3_Da8a__4'
p2583
F0.18546616666666668
sS'spe10_3_0_3_Da4a_Fa36a_1'
p2584
F2.0813683333333337
sS'80_3_0_3_Da8a__8'
p2585
F0.16564183333333335
sS'spe10_3_0_3_Da4a_Fa36a_8'
p2586
F1.1038583333333334
sS'80_3_0___Fa18a_12'
p2587
F0.25507266666666667
sS'30_1_0__Da8a_Fa18a_8'
p2588
F0.0039551650000000009
sS'100_8_0__Da12a_Fa6a_2'
p2589
F7.7523816666666656
sS'100_8_0__Da12a_Fa6a_1'
p2590
F5.9420450000000002
sS'30_1_0__Da8a_Fa18a_2'
p2591
F0.008835415000000001
sS'30_1_0__Da8a_Fa18a_1'
p2592
F0.0037837483333333336
sS'100_1_0_3_Da12a__1'
p2593
F0.14801800000000001
sS'30_1_0__Da8a_Fa18a_4'
p2594
F0.005445518333333333
sS'100_1_0__Da2a_Fa12a_8'
p2595
F0.19439216666666667
sS'100_1_0__Da2a_Fa12a_2'
p2596
F0.49329383333333326
sS'100_1_0__Da2a_Fa12a_1'
p2597
F0.147977
sS'80_1_0__Da8a_Fa6a_12'
p2598
F0.12101716666666666
sS'100_1_0__Da2a_Fa12a_4'
p2599
F0.28002383333333331
sS'100_3_0_3__Fa12a_4'
p2600
F0.38926916666666661
sS'100_3_0_3__Fa12a_2'
p2601
F0.57831650000000001
sS'100_1_0_3_Da8a_Fa24a_8'
p2602
F0.090690616666666668
sS'100_3_0_3__Fa12a_1'
p2603
F0.64604200000000001
sS'100_1_0_3_Da8a_Fa24a_4'
p2604
F0.11048533333333332
sS'30_3_0_3_Da2a_Fa12a_8'
p2605
F0.012828583333333332
sS'100_1_0_3_Da8a_Fa24a_1'
p2606
F0.14868633333333334
sS'100_3_0_3__Fa12a_8'
p2607
F0.32910400000000001
sS'100_1_0_3_Da8a_Fa24a_2'
p2608
F0.1632035
sS'80_1_0_3_Da2a_Fa36a_1'
p2609
F0.076741299999999998
sS'80_1_0_3_Da2a_Fa36a_2'
p2610
F0.12155000000000001
sS'80_1_0_3_Da2a_Fa36a_4'
p2611
F0.074562033333333347
sS'80_1_0_3_Da2a_Fa36a_8'
p2612
F0.053626550000000002
sS'spe10_3_0__Da8a__8'
p2613
F2.7364933333333332
sS'100_8_0_3__Fa12a_4'
p2614
F2.2769516666666663
sS'80_1_0_3_Da4a__8'
p2615
F0.047942700000000005
sS'100_1_0_3_Da2a_Fa36a_1'
p2616
F0.14895933333333333
sS'80_8_0_3_Da12a_Fa24a_12'
p2617
F1.0304233333333335
sS'30_3_0__Da4a__12'
p2618
F0.02650046666666667
sS'80_1_0_3_Da4a__4'
p2619
F0.060871716666666666
sS'spe10_3_0__Da8a__1'
p2620
F2.0808449999999996
sS'spe10_3_0__Da8a__2'
p2621
F7.7384650000000006
sS'80_8_0__Da8a_Fa36a_4'
p2622
F1.7892783333333335
sS'spe10_3_0__Da8a__4'
p2623
F4.4218500000000001
sS'80_1_0_3_Da4a__1'
p2624
F0.075790133333333329
sS'80_1_0_3_Da4a__2'
p2625
F0.09202256666666668
sS'100_8_0_3__Fa12a_2'
p2626
F3.4759633333333331
sS'30_3_0_3_Da4a__12'
p2627
F0.012601283333333331
sS'80_1_0_3_Da4a_Fa6a_8'
p2628
F0.061849316666666675
sS'30_8_0__Da12a_Fa6a_8'
p2629
F0.103839
sS'80_1_0_3_Da4a_Fa6a_4'
p2630
F0.063153566666666675
sS'80_1_0_3_Da4a_Fa6a_1'
p2631
F0.076167883333333339
sS'80_1_0_3_Da4a_Fa6a_2'
p2632
F0.08987574999999999
sS'30_1_0__Da12a_Fa6a_12'
p2633
F0.0076831600000000005
sS'80_3_0_3_Da12a_Fa12a_4'
p2634
F0.17859466666666668
sS'80_3_0_3_Da12a_Fa12a_1'
p2635
F0.32926783333333332
sS'80_3_0_3_Da12a_Fa12a_2'
p2636
F0.2383565
sS'80_3_0_3_Da12a_Fa12a_8'
p2637
F0.16809100000000002
sS'30_1_0_3_Da12a_Fa12a_2'
p2638
F0.0041293683333333336
sS'80_1_0__Da12a_Fa6a_4'
p2639
F0.18488883333333331
sS'80_1_0__Da12a_Fa6a_2'
p2640
F0.26964949999999999
sS'30_1_0_3_Da12a_Fa12a_4'
p2641
F0.0030817899999999996
sS'80_8_0__Da2a_Fa36a_1'
p2642
F3.031345
sS'30_1_0_3_Da12a_Fa12a_8'
p2643
F0.0031681133333333333
sS'80_8_0__Da2a_Fa36a_4'
p2644
F2.0092916666666669
sS'80_1_0__Da12a_Fa6a_8'
p2645
F0.13199900000000001
sS'30_1_0___Fa12a_12'
p2646
F0.0068198499999999988
sS'30_3_0_3_Da12a_Fa12a_12'
p2647
F0.015116566666666666
sS'30_8_0_3_Da12a__8'
p2648
F0.083144816666666663
sS'80_8_0__Da8a_Fa12a_12'
p2649
F1.2879183333333335
sS'30_8_0_3_Da12a__4'
p2650
F0.077907466666666661
sS'30_8_0_3_Da12a__2'
p2651
F0.10323449999999999
sS'30_8_0_3_Da12a__1'
p2652
F0.17165816666666667
sS'100_3_0__Da2a__8'
p2653
F1.6768966666666667
sS'30_3_0__Da2a_Fa18a_12'
p2654
F0.018787066666666668
sS'100_3_0__Da2a__1'
p2655
F0.64635100000000001
sS'100_3_0__Da2a__2'
p2656
F3.5205350000000002
sS'100_3_0__Da2a__4'
p2657
F2.282928333333333
sS'100_3_0_3_Da4a_Fa18a_12'
p2658
F0.31010599999999999
sS'80_8_0__Da4a__12'
p2659
F1.342455
sS'spe10_3_0_3_Da2a_Fa6a_12'
p2660
F1.8030116666666667
sS'100_1_0_3_Da2a__8'
p2661
F0.10024783333333333
sS'30_8_0_3_Da8a__12'
p2662
F0.090921633333333321
sS'spe10_3_0__Da4a_Fa6a_8'
p2663
F2.8349266666666666
sS'100_1_0_3_Da2a__1'
p2664
F0.14826633333333336
sS'100_1_0_3_Da2a__4'
p2665
F0.13684883333333334
sS'80_8_0__Da12a_Fa18a_12'
p2666
F1.4294399999999998
sS'30_3_0_3__Fa24a_8'
p2667
F0.01228945
sS'spe10_3_0__Da4a_Fa36a_8'
p2668
F2.003695
sS'30_3_0_3__Fa24a_4'
p2669
F0.015395500000000001
sS'100_3_0__Da4a_Fa24a_12'
p2670
F0.50662800000000008
sS'spe10_3_0__Da4a_Fa36a_4'
p2671
F3.3091483333333329
sS'spe10_3_0__Da4a_Fa36a_2'
p2672
F5.9725983333333339
sS'30_3_0_3__Fa24a_1'
p2673
F0.019335516666666667
sS'30_3_0_3__Fa24a_2'
p2674
F0.022902983333333335
sS'spe10_3_0__Da4a_Fa36a_1'
p2675
F2.0996616666666665
sS'80_3_0__Da4a_Fa18a_4'
p2676
F0.50809883333333339
sS'30_1_0__Da8a_Fa12a_4'
p2677
F0.0053105383333333341
sS'100_8_0_3_Da12a_Fa12a_8'
p2678
F2.0383550000000001
sS'30_1_0__Da8a_Fa12a_1'
p2679
F0.0037986566666666668
sS'80_3_0__Da4a_Fa18a_1'
p2680
F0.32836550000000003
sS'80_3_0__Da4a_Fa18a_2'
p2681
F0.90405766666666665
sS'30_1_0__Da8a_Fa12a_2'
p2682
F0.0083190816666666671
sS'100_8_0_3_Da12a_Fa12a_2'
p2683
F3.2938216666666666
sS'100_8_0_3_Da12a_Fa12a_1'
p2684
F5.9486633333333332
sS'30_8_0___Fa6a_12'
p2685
F0.11754233333333335
sS'30_1_0__Da8a_Fa12a_8'
p2686
F0.0042594366666666673
sS'100_8_0_3_Da12a_Fa12a_4'
p2687
F2.2128150000000004
sS'80_1_0_3_Da8a_Fa18a_2'
p2688
F0.085719816666666671
sS'100_1_0_3_Da4a_Fa12a_1'
p2689
F0.1490735
sS'100_1_0_3_Da4a_Fa12a_2'
p2690
F0.17264933333333332
sS'80_1_0_3_Da8a_Fa18a_1'
p2691
F0.075966216666666683
sS'100_1_0_3_Da4a_Fa12a_4'
p2692
F0.11481666666666668
sS'spe10_3_0__Da12a__12'
p2693
F2.0103800000000001
sS'80_1_0_3_Da8a_Fa18a_4'
p2694
F0.058463899999999992
sS'100_8_0_3_Da2a_Fa18a_8'
p2695
F1.8808
sS'100_1_0_3_Da4a_Fa12a_8'
p2696
F0.09364568333333334
sS'80_1_0_3_Da8a_Fa18a_8'
p2697
F0.049222916666666672
sS'100_8_0_3_Da2a_Fa18a_4'
p2698
F2.2495100000000003
sS'80_1_0_3_Da8a_Fa12a_12'
p2699
F0.053594716666666674
sS'100_8_0_3_Da2a_Fa18a_2'
p2700
F3.4761616666666666
sS'100_8_0_3_Da2a_Fa18a_1'
p2701
F5.9395416666666661
sS'spe10_3_0___Fa36a_2'
p2702
F5.5905616666666669
sS'100_3_0_3_Da2a_Fa12a_4'
p2703
F0.37647883333333332
sS'spe10_3_0__Da8a_Fa36a_8'
p2704
F2.0460749999999996
sS'spe10_3_0___Fa36a_1'
p2705
F2.0929083333333334
sS'30_8_0___Fa36a_8'
p2706
F0.075767650000000006
sS'spe10_3_0___Fa36a_4'
p2707
F3.0571283333333334
sS'spe10_3_0__Da8a_Fa36a_2'
p2708
F6.0461
sS'spe10_3_0___Fa36a_8'
p2709
F1.8235949999999999
sS'spe10_3_0__Da8a_Fa36a_1'
p2710
F2.088176666666667
sS'100_1_0_3__Fa12a_12'
p2711
F0.106935
sS'spe10_3_0__Da8a_Fa36a_4'
p2712
F3.3723116666666666
sS'80_3_0__Da12a_Fa6a_8'
p2713
F0.41638449999999999
sS'80_8_0__Da12a_Fa6a_8'
p2714
F1.8997883333333332
sS'80_3_0__Da12a_Fa6a_1'
p2715
F0.32941949999999998
sS'80_3_0__Da12a_Fa6a_2'
p2716
F0.90233766666666659
sS'30_1_0__Da2a_Fa6a_2'
p2717
F0.011476533333333332
sS'80_3_0__Da12a_Fa6a_4'
p2718
F0.61906116666666666
sS'80_8_0__Da12a_Fa6a_2'
p2719
F3.7670000000000008
sS'80_8_0__Da12a_Fa6a_1'
p2720
F3.0340900000000004
sS'30_3_0_3_Da4a__4'
p2721
F0.012542683333333334
sS'30_3_0_3_Da4a__2'
p2722
F0.017187983333333334
sS'30_3_0_3_Da4a__1'
p2723
F0.01933838333333333
sS'100_1_0__Da8a_Fa36a_4'
p2724
F0.24302366666666667
sS'100_1_0__Da8a_Fa36a_2'
p2725
F0.43758599999999997
sS'30_3_0_3_Da4a__8'
p2726
F0.011703216666666667
sS'80_3_0__Da8a_Fa18a_12'
p2727
F0.22145133333333333
sS'30_3_0__Da2a_Fa6a_4'
p2728
F0.03360515
sS'30_3_0__Da2a_Fa6a_2'
p2729
F0.052018916666666672
sS'30_3_0__Da2a_Fa6a_1'
p2730
F0.019299699999999999
sS'100_3_0_3_Da8a_Fa12a_12'
p2731
F0.34039849999999999
sS'30_3_0__Da2a_Fa6a_8'
p2732
F0.027406799999999999
sS'30_8_0_3_Da4a_Fa36a_8'
p2733
F0.064740416666666661
sS'30_3_0_3__Fa24a_12'
p2734
F0.0121251
sS'30_8_0_3_Da4a_Fa36a_2'
p2735
F0.10520049999999999
sS'30_8_0__Da2a_Fa24a_12'
p2736
F0.070664500000000005
sS'30_8_0_3_Da4a_Fa36a_1'
p2737
F0.17129366666666668
sS'30_8_0_3_Da4a_Fa36a_4'
p2738
F0.07015741666666668
sS'spe10_3_0_3_Da12a_Fa36a_1'
p2739
F2.0846433333333332
sS'spe10_3_0_3_Da12a_Fa36a_2'
p2740
F1.8412566666666663
sS'spe10_3_0_3_Da12a_Fa36a_4'
p2741
F1.2639383333333336
sS'80_3_0_3_Da4a_Fa6a_4'
p2742
F0.19344683333333335
sS'spe10_3_0_3_Da12a_Fa36a_8'
p2743
F1.0694733333333335
sS'spe10_3_0_3_Da2a_Fa18a_12'
p2744
F1.1958216666666666
sS'80_8_0_3_Da2a_Fa24a_12'
p2745
F0.94210433333333332
sS'30_8_0_3___1'
p2746
F0.17106316666666666
sS'30_8_0_3___2'
p2747
F0.10933866666666668
sS'30_3_0_3_Da2a_Fa6a_2'
p2748
F0.020159266666666665
sS'30_8_0_3___4'
p2749
F0.070704300000000012
sS'30_8_0_3___8'
p2750
F0.059185099999999997
sS'80_1_0_3_Da12a__12'
p2751
F0.046987516666666666
sS'30_3_0_3___2'
p2752
F0.023021583333333331
sS'100_3_0__Da2a_Fa12a_1'
p2753
F0.64589600000000003
sS'100_3_0__Da2a_Fa12a_2'
p2754
F1.7137333333333331
sS'spe10_3_0_3_Da2a_Fa12a_8'
p2755
F1.24437
sS'spe10_3_0_3_Da2a_Fa12a_2'
p2756
F2.0280900000000002
sS'spe10_3_0_3_Da2a_Fa12a_1'
p2757
F2.0812916666666665
sS'spe10_3_0_3_Da2a_Fa12a_4'
p2758
F1.3579733333333337
sS'100_8_0_3_Da8a_Fa12a_12'
p2759
F2.1630866666666666
sS'80_1_0_3_Da8a_Fa12a_4'
p2760
F0.058622449999999993
sS'100_8_0_3_Da4a_Fa24a_8'
p2761
F1.8466233333333333
sS'100_8_0_3_Da4a_Fa24a_4'
p2762
F2.1731599999999998
sS'100_8_0_3_Da4a_Fa24a_2'
p2763
F3.349838333333333
sS'100_8_0_3_Da4a_Fa24a_1'
p2764
F5.9724633333333337
sS'80_1_0_3_Da2a__12'
p2765
F0.049328183333333331
sS'spe10_3_0___Fa24a_12'
p2766
F1.4885516666666667
sS'30_8_0_3_Da2a_Fa12a_2'
p2767
F0.10605350000000001
sS'30_8_0_3_Da2a_Fa12a_1'
p2768
F0.17101416666666666
sS'100_8_0__Da4a_Fa12a_4'
p2769
F4.4255800000000001
sS'30_8_0_3_Da2a_Fa12a_4'
p2770
F0.0716141
sS'30_8_0_3_Da2a_Fa12a_8'
p2771
F0.067022616666666673
sS'30_3_0_3_Da2a_Fa18a_12'
p2772
F0.013522683333333334
sS'30_1_0_3__Fa24a_4'
p2773
F0.004922581666666666
sS'30_1_0_3__Fa24a_2'
p2774
F0.007601339999999999
sS'30_1_0_3__Fa24a_1'
p2775
F0.0037707633333333331
sS'30_1_0_3__Fa24a_8'
p2776
F0.0037053749999999999
sS'100_3_0_3_Da8a_Fa36a_4'
p2777
F0.35597649999999997
sS'100_3_0_3_Da8a_Fa36a_1'
p2778
F0.64535533333333328
sS'100_3_0_3_Da8a_Fa36a_2'
p2779
F0.4910856666666667
sS'100_8_0_3_Da8a_Fa36a_1'
p2780
F5.9308649999999998
sS'100_3_0_3_Da8a_Fa36a_8'
p2781
F0.31077166666666667
sS'30_1_0__Da8a_Fa12a_12'
p2782
F0.004340605
sS'80_1_0_3_Da12a_Fa6a_1'
p2783
F0.075954216666666671
sS'100_3_0___Fa18a_12'
p2784
F0.50108983333333335
sS'30_3_0__Da4a_Fa6a_1'
p2785
F0.019307816666666668
sS'30_3_0__Da4a_Fa6a_2'
p2786
F0.054808566666666662
sS'30_3_0__Da4a_Fa6a_4'
p2787
F0.036341249999999999
sS'30_3_0__Da4a_Fa6a_8'
p2788
F0.02744125
sS'spe10_3_0____8'
p2789
F12.201733333333332
sS'30_1_0_3_Da12a_Fa24a_12'
p2790
F0.0033386749999999997
sS'spe10_3_0____1'
p2791
F2.0864333333333334
sS'spe10_3_0____2'
p2792
F23.46575
sS'spe10_3_0____4'
p2793
F16.305883333333334
sS'30_8_0__Da2a_Fa24a_2'
p2794
F0.19859766666666667
sS'100_8_0__Da8a__8'
p2795
F2.5627183333333332
sS'80_1_0_3_Da12a_Fa6a_8'
p2796
F0.058888899999999994
sS'100_8_0__Da8a__2'
p2797
F6.9730783333333335
sS'100_8_0__Da8a__1'
p2798
F5.9212600000000002
sS'100_8_0__Da8a__4'
p2799
F3.8957250000000001
sS'30_3_0__Da12a_Fa36a_4'
p2800
F0.032218933333333331
sS'30_3_0__Da12a_Fa36a_1'
p2801
F0.019337266666666665
sS'30_3_0__Da12a_Fa36a_2'
p2802
F0.055825216666666656
sS'30_3_0__Da12a_Fa36a_8'
p2803
F0.020677333333333336
sS'80_3_0__Da8a_Fa6a_8'
p2804
F0.36794016666666668
sS'80_3_0__Da8a_Fa6a_2'
p2805
F0.79172183333333346
sS'100_3_0__Da4a_Fa36a_12'
p2806
F0.49165333333333333
sS'80_3_0__Da8a_Fa6a_1'
p2807
F0.32923566666666665
sS'80_3_0__Da8a_Fa6a_4'
p2808
F0.45981000000000005
sS'100_8_0_3_Da2a_Fa12a_1'
p2809
F5.9262533333333325
sS'80_1_0_3_Da2a_Fa12a_2'
p2810
F0.11557933333333333
sS'100_8_0_3_Da2a_Fa12a_2'
p2811
F3.4701983333333337
sS'100_8_0_3_Da2a_Fa12a_4'
p2812
F2.2591166666666669
sS'80_3_0_3_Da2a_Fa6a_12'
p2813
F0.23844400000000002
sS'100_8_0_3_Da2a_Fa12a_8'
p2814
F1.9566549999999998
sS'100_8_0__Da8a_Fa18a_8'
p2815
F2.5539399999999999
sS'100_8_0_3_Da12a_Fa6a_4'
p2816
F2.3929433333333332
sS'100_3_0__Da4a_Fa18a_12'
p2817
F0.54265149999999995
sS'80_1_0_3_Da2a_Fa12a_1'
p2818
F0.075943200000000002
sS'100_8_0___Fa36a_2'
p2819
F7.3428716666666674
sS'100_8_0___Fa36a_1'
p2820
F5.9661766666666667
sS'100_8_0___Fa36a_8'
p2821
F2.5947733333333338
sS'80_1_0_3_Da2a_Fa12a_4'
p2822
F0.070590266666666665
sS'100_1_0_3__Fa18a_8'
p2823
F0.10494366666666666
sS'100_1_0_3__Fa18a_4'
p2824
F0.14635383333333335
sS'100_1_0_3__Fa18a_2'
p2825
F0.23736699999999999
sS'100_1_0_3__Fa18a_1'
p2826
F0.15144333333333335
sS'30_3_0_3_Da4a_Fa24a_8'
p2827
F0.011726750000000001
sS'100_8_0__Da8a_Fa18a_1'
p2828
F5.939165
sS'30_3_0_3_Da4a_Fa24a_1'
p2829
F0.019282049999999998
sS'30_3_0_3_Da4a_Fa24a_2'
p2830
F0.017246683333333335
sS'30_3_0_3_Da4a_Fa24a_4'
p2831
F0.012614449999999999
sS'80_1_0_3_Da2a_Fa12a_8'
p2832
F0.053103383333333337
sS'80_8_0_3_Da4a_Fa18a_1'
p2833
F3.0396883333333329
sS'100_8_0_3__Fa6a_8'
p2834
F2.4005833333333335
sS'80_8_0_3__Fa24a_12'
p2835
F0.93093049999999999
sS'80_8_0_3_Da4a_Fa18a_2'
p2836
F1.7036366666666669
sS'100_1_0___Fa36a_2'
p2837
F0.53271849999999998
sS'80_8_0_3_Da4a_Fa18a_4'
p2838
F1.1160516666666667
sS'80_3_0_3_Da12a_Fa18a_12'
p2839
F0.16807283333333334
sS'100_1_0___Fa36a_1'
p2840
F0.14936766666666668
sS'100_3_0_3__Fa24a_4'
p2841
F0.3905325
sS'80_8_0_3_Da4a_Fa18a_8'
p2842
F0.96512300000000006
sS'100_8_0_3__Fa6a_2'
p2843
F3.4927683333333328
sS'100_8_0_3__Fa6a_4'
p2844
F2.4388566666666667
sS'100_1_0___Fa36a_8'
p2845
F0.17781749999999999
sS'100_1_0_3_Da2a_Fa6a_8'
p2846
F0.13265966666666665
sS'80_3_0___Fa18a_4'
p2847
F0.47676166666666669
sS'100_1_0_3_Da2a_Fa6a_2'
p2848
F0.21309116666666669
sS'100_1_0_3_Da2a_Fa6a_1'
p2849
F0.14803999999999998
sS'spe10_3_0_3_Da4a_Fa6a_12'
p2850
F1.7116966666666666
sS'100_1_0_3_Da2a_Fa6a_4'
p2851
F0.13947433333333334
sS'100_3_0_3_Da12a_Fa6a_4'
p2852
F0.36108033333333339
sS'30_8_0__Da8a_Fa12a_8'
p2853
F0.075112949999999998
sS'100_3_0_3_Da12a_Fa6a_1'
p2854
F0.64529116666666664
sS'100_3_0_3_Da12a_Fa6a_2'
p2855
F0.46024949999999998
sS'30_8_0__Da8a_Fa12a_4'
p2856
F0.094701149999999998
sS'100_3_0_3_Da12a_Fa6a_8'
p2857
F0.37352466666666667
sS'30_8_0__Da8a_Fa12a_1'
p2858
F0.17153600000000002
sS'30_8_0__Da8a_Fa12a_2'
p2859
F0.1559585
sS'30_1_0_3_Da12a_Fa24a_4'
p2860
F0.003098225
sS'80_3_0_3_Da12a_Fa24a_12'
p2861
F0.16458199999999998
sS'30_1_0_3_Da12a_Fa24a_2'
p2862
F0.004154675
sS'100_1_0_3_Da8a_Fa18a_8'
p2863
F0.091484066666666683
sS'30_1_0_3_Da12a_Fa24a_1'
p2864
F0.003694646666666667
sS'100_1_0_3_Da8a_Fa18a_4'
p2865
F0.11064166666666668
sS'100_1_0_3_Da8a_Fa18a_2'
p2866
F0.16293233333333332
sS'30_1_0_3_Da12a_Fa24a_8'
p2867
F0.0031328999999999997
sS'100_1_0_3_Da8a_Fa18a_1'
p2868
F0.14864616666666666
sS'80_1_0__Da4a_Fa18a_2'
p2869
F0.27710133333333331
sS'80_1_0__Da4a_Fa18a_1'
p2870
F0.075365500000000002
sS'100_3_0_3__Fa24a_2'
p2871
F0.57720249999999995
sS'80_1_0__Da4a_Fa18a_4'
p2872
F0.157855
sS'80_1_0__Da4a_Fa18a_8'
p2873
F0.10302666666666667
sS'100_8_0_3_Da12a_Fa36a_12'
p2874
F1.9716950000000002
sS'80_1_0__Da2a_Fa18a_12'
p2875
F0.086618633333333347
sS'30_8_0__Da8a_Fa36a_12'
p2876
F0.062216416666666663
sS'100_3_0__Da12a_Fa24a_4'
p2877
F0.96694733333333327
sS'100_3_0__Da12a_Fa24a_1'
p2878
F0.6458153333333333
sS'spe10_3_0_3_Da8a_Fa12a_1'
p2879
F2.0814699999999999
sS'100_8_0_3_Da12a_Fa18a_12'
p2880
F2.0344216666666668
sS'80_8_0_3_Da2a_Fa6a_12'
p2881
F1.4630066666666668
sS'30_3_0__Da8a_Fa24a_12'
p2882
F0.014289949999999997
sS'30_1_0__Da2a_Fa12a_8'
p2883
F0.0063881183333333339
sS'30_1_0__Da2a_Fa12a_2'
p2884
F0.01188
sS'30_1_0__Da2a_Fa12a_1'
p2885
F0.0037644816666666668
sS'30_1_0__Da2a_Fa12a_4'
p2886
F0.0079987016666666685
sS'80_1_0__Da12a_Fa36a_4'
p2887
F0.15541966666666665
sS'100_1_0__Da4a_Fa24a_4'
p2888
F0.30540766666666663
sS'100_1_0__Da2a__12'
p2889
F0.93354866666666669
sS'80_3_0__Da4a_Fa24a_4'
p2890
F0.50621183333333331
sS'100_1_0__Da4a_Fa24a_1'
p2891
F0.14863116666666668
sS'80_1_0__Da12a_Fa36a_1'
p2892
F0.075823733333333337
sS'80_1_0__Da12a_Fa36a_2'
p2893
F0.27617483333333331
sS'100_1_0__Da4a_Fa24a_2'
p2894
F0.54697683333333336
sS'100_3_0_3_Da2a_Fa6a_12'
p2895
F0.45286749999999998
sS'80_1_0__Da12a_Fa36a_8'
p2896
F0.097933916666666662
sS'100_1_0__Da4a_Fa24a_8'
p2897
F0.19283633333333336
sS'80_3_0__Da4a_Fa24a_8'
p2898
F0.31200483333333334
sS'100_3_0_3__Fa36a_4'
p2899
F0.39514566666666667
sS'100_3_0_3__Fa36a_1'
p2900
F0.6450636666666667
sS'100_3_0_3__Fa36a_2'
p2901
F0.58231383333333331
sS'80_1_0__Da12a_Fa12a_12'
p2902
F0.095626916666666673
sS'100_3_0_3__Fa36a_8'
p2903
F0.32616616666666665
sS'80_8_0_3_Da12a__12'
p2904
F1.0302283333333333
sS'30_8_0__Da4a_Fa18a_2'
p2905
F0.19532899999999997
sS'80_8_0_3_Da12a_Fa18a_4'
p2906
F1.1306700000000001
sS'30_8_0__Da4a_Fa18a_1'
p2907
F0.17143716666666667
sS'80_8_0_3_Da12a_Fa18a_1'
p2908
F3.0290433333333326
sS'100_1_0_3_Da12a_Fa6a_12'
p2909
F0.120625
sS'30_8_0__Da4a_Fa18a_4'
p2910
F0.11350700000000001
sS'80_8_0_3_Da12a_Fa18a_2'
p2911
F1.704161666666667
sS'30_8_0__Da4a_Fa18a_8'
p2912
F0.079717133333333343
sS'80_8_0_3_Da12a_Fa18a_8'
p2913
F1.0059149999999999
sS'100_3_0_3_Da4a__8'
p2914
F0.30564449999999993
sS'30_3_0_3_Da4a_Fa36a_2'
p2915
F0.017211250000000001
sS'30_3_0_3_Da4a_Fa36a_1'
p2916
F0.019391616666666667
sS'30_3_0_3_Da12a__12'
p2917
F0.015153399999999999
sS'30_3_0_3_Da4a_Fa36a_4'
p2918
F0.012669266666666667
sS'80_1_0_3__Fa18a_2'
p2919
F0.12948733333333334
sS'80_3_0_3_Da4a_Fa24a_12'
p2920
F0.15872433333333333
sS'80_1_0_3__Fa18a_1'
p2921
F0.075314199999999998
sS'80_1_0_3__Fa18a_4'
p2922
F0.078660533333333324
sS'30_1_0_3_Da4a_Fa24a_8'
p2923
F0.0028537383333333329
sS'30_1_0_3_Da2a_Fa36a_4'
p2924
F0.004176793333333333
sS'30_1_0_3_Da2a_Fa36a_2'
p2925
F0.0065338083333333326
sS'30_1_0_3_Da2a_Fa36a_1'
p2926
F0.0037364983333333331
sS'30_1_0_3_Da4a_Fa24a_2'
p2927
F0.0050101566666666663
sS'100_8_0__Da2a_Fa18a_4'
p2928
F4.1476999999999995
sS'30_1_0_3_Da4a_Fa24a_1'
p2929
F0.0036781016666666672
sS'100_8_0__Da2a_Fa18a_1'
p2930
F5.9828783333333329
sS'30_1_0_3_Da4a_Fa24a_4'
p2931
F0.003303898333333334
sS'30_1_0_3_Da2a_Fa36a_8'
p2932
F0.0034560833333333331
sS'30_1_0_3_Da4a_Fa18a_1'
p2933
F0.003737045
sS'30_1_0_3_Da4a_Fa18a_2'
p2934
F0.0049388349999999999
sS'30_1_0_3_Da4a_Fa18a_4'
p2935
F0.0032979550000000004
sS'30_1_0_3_Da4a_Fa18a_8'
p2936
F0.0028533316666666669
sS'30_3_0_3_Da2a_Fa6a_12'
p2937
F0.017223433333333333
sS'80_8_0_3_Da4a_Fa24a_12'
p2938
F0.9505840000000001
sS'spe10_3_0__Da12a_Fa24a_12'
p2939
F1.8240316666666665
sS'100_1_0__Da2a_Fa24a_8'
p2940
F0.17222999999999999
sS'100_1_0__Da2a_Fa24a_4'
p2941
F0.27742516666666672
sS'100_1_0__Da2a_Fa24a_2'
p2942
F0.49753749999999997
sS'100_1_0__Da2a_Fa24a_1'
p2943
F0.14838116666666668
sS'30_1_0__Da12a_Fa24a_8'
p2944
F0.0060480000000000004
sS'80_3_0_3_Da8a_Fa24a_2'
p2945
F0.25462483333333336
sS'30_1_0_3__Fa6a_8'
p2946
F0.004776351666666667
sS'30_1_0__Da12a_Fa24a_1'
p2947
F0.0036534483333333333
sS'30_1_0__Da12a_Fa24a_2'
p2948
F0.014041350000000001
sS'30_1_0__Da12a_Fa24a_4'
p2949
F0.008596726666666667
sS'30_8_0_3_Da2a_Fa6a_8'
p2950
F0.08118906666666667
sS'100_3_0_3_Da2a_Fa12a_8'
p2951
F0.32475066666666669
sS'30_1_0_3_Da4a__12'
p2952
F0.0030263066666666671
sS'30_8_0_3_Da2a_Fa6a_2'
p2953
F0.10569566666666667
sS'30_8_0_3_Da2a_Fa6a_1'
p2954
F0.17121249999999999
sS'100_3_0_3_Da2a_Fa12a_1'
p2955
F0.65070899999999998
sS'30_8_0_3_Da2a_Fa6a_4'
p2956
F0.076048016666666676
sS'30_3_0_3_Da8a_Fa12a_12'
p2957
F0.015213583333333331
sS'30_1_0_3_Da8a__1'
p2958
F0.0037776749999999999
sS'100_8_0_3_Da4a_Fa12a_4'
p2959
F2.2063833333333331
sS'100_3_0__Da2a_Fa12a_8'
p2960
F0.63168466666666667
sS'30_1_0____8'
p2961
F0.064965283333333332
sS'100_3_0__Da2a_Fa12a_4'
p2962
F0.96576750000000011
sS'30_1_0____4'
p2963
F0.084096866666666673
sS'30_1_0____2'
p2964
F0.11586166666666665
sS'30_1_0____1'
p2965
F0.0037260766666666664
sS'spe10_3_0_3___8'
p2966
F1.318945
sS'100_3_0_3_Da12a_Fa18a_12'
p2967
F0.32062566666666664
sS'80_8_0_3_Da8a_Fa18a_2'
p2968
F1.7238133333333334
sS'100_3_0___Fa36a_8'
p2969
F0.57198833333333321
sS'spe10_3_0__Da2a_Fa6a_12'
p2970
F2.9390649999999998
sS'80_1_0_3_Da4a_Fa36a_12'
p2971
F0.046213150000000001
sS'80_8_0___Fa12a_12'
p2972
F1.3643383333333332
sS'100_1_0_3_Da4a__8'
p2973
F0.091672666666666666
sS'100_1_0_3_Da4a__4'
p2974
F0.11680566666666668
sS'100_1_0_3_Da4a__1'
p2975
F0.14826183333333334
sS'100_1_0_3_Da4a__2'
p2976
F0.17697483333333333
sS'spe10_3_0_3_Da8a_Fa12a_8'
p2977
F1.1881300000000001
sS'30_8_0__Da8a_Fa24a_8'
p2978
F0.067674233333333333
sS'80_3_0_3_Da2a_Fa24a_8'
p2979
F0.16469300000000001
sS'30_8_0__Da8a_Fa24a_4'
p2980
F0.095496399999999995
sS'spe10_3_0_3_Da8a_Fa12a_2'
p2981
F1.8415199999999998
sS'30_8_0__Da8a_Fa24a_1'
p2982
F0.17081866666666667
sS'30_8_0__Da8a_Fa24a_2'
p2983
F0.161937
sS'80_8_0_3_Da2a_Fa36a_4'
p2984
F1.1841383333333333
sS'80_8_0_3_Da2a_Fa36a_2'
p2985
F1.8346183333333332
sS'80_8_0_3_Da2a_Fa36a_1'
p2986
F3.0275383333333337
sS'80_8_0_3_Da2a_Fa36a_8'
p2987
F0.97891316666666661
sS'30_8_0_3_Da4a_Fa12a_12'
p2988
F0.072663350000000002
sS'80_3_0__Da2a_Fa12a_12'
p2989
F0.28160316666666668
sS'30_8_0__Da2a_Fa18a_8'
p2990
F0.077839483333333334
sS'100_3_0__Da4a_Fa12a_4'
p2991
F1.0304416666666667
sS'30_8_0__Da2a_Fa18a_4'
p2992
F0.11312316666666666
sS'80_3_0_3_Da4a_Fa36a_8'
p2993
F0.15865300000000002
sS'30_3_0___Fa36a_12'
p2994
F0.018748433333333332
sS'30_8_0__Da2a_Fa18a_1'
p2995
F0.17199166666666665
sS'30_8_0__Da2a_Fa18a_2'
p2996
F0.1961775
sS'100_1_0_3___12'
p2997
F0.099212399999999992
sS'30_8_0_3_Da8a_Fa36a_12'
p2998
F0.091018733333333324
sS'80_1_0_3_Da12a_Fa36a_1'
p2999
F0.076032249999999996
sS'80_1_0_3_Da12a_Fa36a_2'
p3000
F0.078775483333333327
s.